
rtarget:     file format elf64-x86-64


Disassembly of section .init:

0000000000400c48 <_init>:
  400c48:	48 83 ec 08          	sub    $0x8,%rsp
  400c4c:	48 8b 05 a5 43 20 00 	mov    0x2043a5(%rip),%rax        # 604ff8 <__gmon_start__>
  400c53:	48 85 c0             	test   %rax,%rax
  400c56:	74 02                	je     400c5a <_init+0x12>
  400c58:	ff d0                	callq  *%rax
  400c5a:	48 83 c4 08          	add    $0x8,%rsp
  400c5e:	c3                   	retq   

Disassembly of section .plt:

0000000000400c60 <.plt>:
  400c60:	ff 35 a2 43 20 00    	pushq  0x2043a2(%rip)        # 605008 <_GLOBAL_OFFSET_TABLE_+0x8>
  400c66:	ff 25 a4 43 20 00    	jmpq   *0x2043a4(%rip)        # 605010 <_GLOBAL_OFFSET_TABLE_+0x10>
  400c6c:	0f 1f 40 00          	nopl   0x0(%rax)

0000000000400c70 <strcasecmp@plt>:
  400c70:	ff 25 a2 43 20 00    	jmpq   *0x2043a2(%rip)        # 605018 <strcasecmp@GLIBC_2.2.5>
  400c76:	68 00 00 00 00       	pushq  $0x0
  400c7b:	e9 e0 ff ff ff       	jmpq   400c60 <.plt>

0000000000400c80 <__errno_location@plt>:
  400c80:	ff 25 9a 43 20 00    	jmpq   *0x20439a(%rip)        # 605020 <__errno_location@GLIBC_2.2.5>
  400c86:	68 01 00 00 00       	pushq  $0x1
  400c8b:	e9 d0 ff ff ff       	jmpq   400c60 <.plt>

0000000000400c90 <srandom@plt>:
  400c90:	ff 25 92 43 20 00    	jmpq   *0x204392(%rip)        # 605028 <srandom@GLIBC_2.2.5>
  400c96:	68 02 00 00 00       	pushq  $0x2
  400c9b:	e9 c0 ff ff ff       	jmpq   400c60 <.plt>

0000000000400ca0 <strncmp@plt>:
  400ca0:	ff 25 8a 43 20 00    	jmpq   *0x20438a(%rip)        # 605030 <strncmp@GLIBC_2.2.5>
  400ca6:	68 03 00 00 00       	pushq  $0x3
  400cab:	e9 b0 ff ff ff       	jmpq   400c60 <.plt>

0000000000400cb0 <strcpy@plt>:
  400cb0:	ff 25 82 43 20 00    	jmpq   *0x204382(%rip)        # 605038 <strcpy@GLIBC_2.2.5>
  400cb6:	68 04 00 00 00       	pushq  $0x4
  400cbb:	e9 a0 ff ff ff       	jmpq   400c60 <.plt>

0000000000400cc0 <puts@plt>:
  400cc0:	ff 25 7a 43 20 00    	jmpq   *0x20437a(%rip)        # 605040 <puts@GLIBC_2.2.5>
  400cc6:	68 05 00 00 00       	pushq  $0x5
  400ccb:	e9 90 ff ff ff       	jmpq   400c60 <.plt>

0000000000400cd0 <write@plt>:
  400cd0:	ff 25 72 43 20 00    	jmpq   *0x204372(%rip)        # 605048 <write@GLIBC_2.2.5>
  400cd6:	68 06 00 00 00       	pushq  $0x6
  400cdb:	e9 80 ff ff ff       	jmpq   400c60 <.plt>

0000000000400ce0 <__stack_chk_fail@plt>:
  400ce0:	ff 25 6a 43 20 00    	jmpq   *0x20436a(%rip)        # 605050 <__stack_chk_fail@GLIBC_2.4>
  400ce6:	68 07 00 00 00       	pushq  $0x7
  400ceb:	e9 70 ff ff ff       	jmpq   400c60 <.plt>

0000000000400cf0 <mmap@plt>:
  400cf0:	ff 25 62 43 20 00    	jmpq   *0x204362(%rip)        # 605058 <mmap@GLIBC_2.2.5>
  400cf6:	68 08 00 00 00       	pushq  $0x8
  400cfb:	e9 60 ff ff ff       	jmpq   400c60 <.plt>

0000000000400d00 <memset@plt>:
  400d00:	ff 25 5a 43 20 00    	jmpq   *0x20435a(%rip)        # 605060 <memset@GLIBC_2.2.5>
  400d06:	68 09 00 00 00       	pushq  $0x9
  400d0b:	e9 50 ff ff ff       	jmpq   400c60 <.plt>

0000000000400d10 <alarm@plt>:
  400d10:	ff 25 52 43 20 00    	jmpq   *0x204352(%rip)        # 605068 <alarm@GLIBC_2.2.5>
  400d16:	68 0a 00 00 00       	pushq  $0xa
  400d1b:	e9 40 ff ff ff       	jmpq   400c60 <.plt>

0000000000400d20 <close@plt>:
  400d20:	ff 25 4a 43 20 00    	jmpq   *0x20434a(%rip)        # 605070 <close@GLIBC_2.2.5>
  400d26:	68 0b 00 00 00       	pushq  $0xb
  400d2b:	e9 30 ff ff ff       	jmpq   400c60 <.plt>

0000000000400d30 <read@plt>:
  400d30:	ff 25 42 43 20 00    	jmpq   *0x204342(%rip)        # 605078 <read@GLIBC_2.2.5>
  400d36:	68 0c 00 00 00       	pushq  $0xc
  400d3b:	e9 20 ff ff ff       	jmpq   400c60 <.plt>

0000000000400d40 <signal@plt>:
  400d40:	ff 25 3a 43 20 00    	jmpq   *0x20433a(%rip)        # 605080 <signal@GLIBC_2.2.5>
  400d46:	68 0d 00 00 00       	pushq  $0xd
  400d4b:	e9 10 ff ff ff       	jmpq   400c60 <.plt>

0000000000400d50 <gethostbyname@plt>:
  400d50:	ff 25 32 43 20 00    	jmpq   *0x204332(%rip)        # 605088 <gethostbyname@GLIBC_2.2.5>
  400d56:	68 0e 00 00 00       	pushq  $0xe
  400d5b:	e9 00 ff ff ff       	jmpq   400c60 <.plt>

0000000000400d60 <__memmove_chk@plt>:
  400d60:	ff 25 2a 43 20 00    	jmpq   *0x20432a(%rip)        # 605090 <__memmove_chk@GLIBC_2.3.4>
  400d66:	68 0f 00 00 00       	pushq  $0xf
  400d6b:	e9 f0 fe ff ff       	jmpq   400c60 <.plt>

0000000000400d70 <strtol@plt>:
  400d70:	ff 25 22 43 20 00    	jmpq   *0x204322(%rip)        # 605098 <strtol@GLIBC_2.2.5>
  400d76:	68 10 00 00 00       	pushq  $0x10
  400d7b:	e9 e0 fe ff ff       	jmpq   400c60 <.plt>

0000000000400d80 <memcpy@plt>:
  400d80:	ff 25 1a 43 20 00    	jmpq   *0x20431a(%rip)        # 6050a0 <memcpy@GLIBC_2.14>
  400d86:	68 11 00 00 00       	pushq  $0x11
  400d8b:	e9 d0 fe ff ff       	jmpq   400c60 <.plt>

0000000000400d90 <time@plt>:
  400d90:	ff 25 12 43 20 00    	jmpq   *0x204312(%rip)        # 6050a8 <time@GLIBC_2.2.5>
  400d96:	68 12 00 00 00       	pushq  $0x12
  400d9b:	e9 c0 fe ff ff       	jmpq   400c60 <.plt>

0000000000400da0 <random@plt>:
  400da0:	ff 25 0a 43 20 00    	jmpq   *0x20430a(%rip)        # 6050b0 <random@GLIBC_2.2.5>
  400da6:	68 13 00 00 00       	pushq  $0x13
  400dab:	e9 b0 fe ff ff       	jmpq   400c60 <.plt>

0000000000400db0 <_IO_getc@plt>:
  400db0:	ff 25 02 43 20 00    	jmpq   *0x204302(%rip)        # 6050b8 <_IO_getc@GLIBC_2.2.5>
  400db6:	68 14 00 00 00       	pushq  $0x14
  400dbb:	e9 a0 fe ff ff       	jmpq   400c60 <.plt>

0000000000400dc0 <__isoc99_sscanf@plt>:
  400dc0:	ff 25 fa 42 20 00    	jmpq   *0x2042fa(%rip)        # 6050c0 <__isoc99_sscanf@GLIBC_2.7>
  400dc6:	68 15 00 00 00       	pushq  $0x15
  400dcb:	e9 90 fe ff ff       	jmpq   400c60 <.plt>

0000000000400dd0 <munmap@plt>:
  400dd0:	ff 25 f2 42 20 00    	jmpq   *0x2042f2(%rip)        # 6050c8 <munmap@GLIBC_2.2.5>
  400dd6:	68 16 00 00 00       	pushq  $0x16
  400ddb:	e9 80 fe ff ff       	jmpq   400c60 <.plt>

0000000000400de0 <__printf_chk@plt>:
  400de0:	ff 25 ea 42 20 00    	jmpq   *0x2042ea(%rip)        # 6050d0 <__printf_chk@GLIBC_2.3.4>
  400de6:	68 17 00 00 00       	pushq  $0x17
  400deb:	e9 70 fe ff ff       	jmpq   400c60 <.plt>

0000000000400df0 <fopen@plt>:
  400df0:	ff 25 e2 42 20 00    	jmpq   *0x2042e2(%rip)        # 6050d8 <fopen@GLIBC_2.2.5>
  400df6:	68 18 00 00 00       	pushq  $0x18
  400dfb:	e9 60 fe ff ff       	jmpq   400c60 <.plt>

0000000000400e00 <getopt@plt>:
  400e00:	ff 25 da 42 20 00    	jmpq   *0x2042da(%rip)        # 6050e0 <getopt@GLIBC_2.2.5>
  400e06:	68 19 00 00 00       	pushq  $0x19
  400e0b:	e9 50 fe ff ff       	jmpq   400c60 <.plt>

0000000000400e10 <strtoul@plt>:
  400e10:	ff 25 d2 42 20 00    	jmpq   *0x2042d2(%rip)        # 6050e8 <strtoul@GLIBC_2.2.5>
  400e16:	68 1a 00 00 00       	pushq  $0x1a
  400e1b:	e9 40 fe ff ff       	jmpq   400c60 <.plt>

0000000000400e20 <gethostname@plt>:
  400e20:	ff 25 ca 42 20 00    	jmpq   *0x2042ca(%rip)        # 6050f0 <gethostname@GLIBC_2.2.5>
  400e26:	68 1b 00 00 00       	pushq  $0x1b
  400e2b:	e9 30 fe ff ff       	jmpq   400c60 <.plt>

0000000000400e30 <exit@plt>:
  400e30:	ff 25 c2 42 20 00    	jmpq   *0x2042c2(%rip)        # 6050f8 <exit@GLIBC_2.2.5>
  400e36:	68 1c 00 00 00       	pushq  $0x1c
  400e3b:	e9 20 fe ff ff       	jmpq   400c60 <.plt>

0000000000400e40 <connect@plt>:
  400e40:	ff 25 ba 42 20 00    	jmpq   *0x2042ba(%rip)        # 605100 <connect@GLIBC_2.2.5>
  400e46:	68 1d 00 00 00       	pushq  $0x1d
  400e4b:	e9 10 fe ff ff       	jmpq   400c60 <.plt>

0000000000400e50 <__fprintf_chk@plt>:
  400e50:	ff 25 b2 42 20 00    	jmpq   *0x2042b2(%rip)        # 605108 <__fprintf_chk@GLIBC_2.3.4>
  400e56:	68 1e 00 00 00       	pushq  $0x1e
  400e5b:	e9 00 fe ff ff       	jmpq   400c60 <.plt>

0000000000400e60 <__sprintf_chk@plt>:
  400e60:	ff 25 aa 42 20 00    	jmpq   *0x2042aa(%rip)        # 605110 <__sprintf_chk@GLIBC_2.3.4>
  400e66:	68 1f 00 00 00       	pushq  $0x1f
  400e6b:	e9 f0 fd ff ff       	jmpq   400c60 <.plt>

0000000000400e70 <socket@plt>:
  400e70:	ff 25 a2 42 20 00    	jmpq   *0x2042a2(%rip)        # 605118 <socket@GLIBC_2.2.5>
  400e76:	68 20 00 00 00       	pushq  $0x20
  400e7b:	e9 e0 fd ff ff       	jmpq   400c60 <.plt>

Disassembly of section .text:

0000000000400e80 <_start>:
  400e80:	31 ed                	xor    %ebp,%ebp
  400e82:	49 89 d1             	mov    %rdx,%r9
  400e85:	5e                   	pop    %rsi
  400e86:	48 89 e2             	mov    %rsp,%rdx
  400e89:	48 83 e4 f0          	and    $0xfffffffffffffff0,%rsp
  400e8d:	50                   	push   %rax
  400e8e:	54                   	push   %rsp
  400e8f:	49 c7 c0 c0 2f 40 00 	mov    $0x402fc0,%r8
  400e96:	48 c7 c1 50 2f 40 00 	mov    $0x402f50,%rcx
  400e9d:	48 c7 c7 8e 11 40 00 	mov    $0x40118e,%rdi
  400ea4:	ff 15 46 41 20 00    	callq  *0x204146(%rip)        # 604ff0 <__libc_start_main@GLIBC_2.2.5>
  400eaa:	f4                   	hlt    
  400eab:	0f 1f 44 00 00       	nopl   0x0(%rax,%rax,1)

0000000000400eb0 <_dl_relocate_static_pie>:
  400eb0:	f3 c3                	repz retq 
  400eb2:	66 2e 0f 1f 84 00 00 	nopw   %cs:0x0(%rax,%rax,1)
  400eb9:	00 00 00 
  400ebc:	0f 1f 40 00          	nopl   0x0(%rax)

0000000000400ec0 <deregister_tm_clones>:
  400ec0:	55                   	push   %rbp
  400ec1:	b8 90 54 60 00       	mov    $0x605490,%eax
  400ec6:	48 3d 90 54 60 00    	cmp    $0x605490,%rax
  400ecc:	48 89 e5             	mov    %rsp,%rbp
  400ecf:	74 17                	je     400ee8 <deregister_tm_clones+0x28>
  400ed1:	b8 00 00 00 00       	mov    $0x0,%eax
  400ed6:	48 85 c0             	test   %rax,%rax
  400ed9:	74 0d                	je     400ee8 <deregister_tm_clones+0x28>
  400edb:	5d                   	pop    %rbp
  400edc:	bf 90 54 60 00       	mov    $0x605490,%edi
  400ee1:	ff e0                	jmpq   *%rax
  400ee3:	0f 1f 44 00 00       	nopl   0x0(%rax,%rax,1)
  400ee8:	5d                   	pop    %rbp
  400ee9:	c3                   	retq   
  400eea:	66 0f 1f 44 00 00    	nopw   0x0(%rax,%rax,1)

0000000000400ef0 <register_tm_clones>:
  400ef0:	be 90 54 60 00       	mov    $0x605490,%esi
  400ef5:	55                   	push   %rbp
  400ef6:	48 81 ee 90 54 60 00 	sub    $0x605490,%rsi
  400efd:	48 89 e5             	mov    %rsp,%rbp
  400f00:	48 c1 fe 03          	sar    $0x3,%rsi
  400f04:	48 89 f0             	mov    %rsi,%rax
  400f07:	48 c1 e8 3f          	shr    $0x3f,%rax
  400f0b:	48 01 c6             	add    %rax,%rsi
  400f0e:	48 d1 fe             	sar    %rsi
  400f11:	74 15                	je     400f28 <register_tm_clones+0x38>
  400f13:	b8 00 00 00 00       	mov    $0x0,%eax
  400f18:	48 85 c0             	test   %rax,%rax
  400f1b:	74 0b                	je     400f28 <register_tm_clones+0x38>
  400f1d:	5d                   	pop    %rbp
  400f1e:	bf 90 54 60 00       	mov    $0x605490,%edi
  400f23:	ff e0                	jmpq   *%rax
  400f25:	0f 1f 00             	nopl   (%rax)
  400f28:	5d                   	pop    %rbp
  400f29:	c3                   	retq   
  400f2a:	66 0f 1f 44 00 00    	nopw   0x0(%rax,%rax,1)

0000000000400f30 <__do_global_dtors_aux>:
  400f30:	80 3d 91 45 20 00 00 	cmpb   $0x0,0x204591(%rip)        # 6054c8 <completed.7698>
  400f37:	75 17                	jne    400f50 <__do_global_dtors_aux+0x20>
  400f39:	55                   	push   %rbp
  400f3a:	48 89 e5             	mov    %rsp,%rbp
  400f3d:	e8 7e ff ff ff       	callq  400ec0 <deregister_tm_clones>
  400f42:	c6 05 7f 45 20 00 01 	movb   $0x1,0x20457f(%rip)        # 6054c8 <completed.7698>
  400f49:	5d                   	pop    %rbp
  400f4a:	c3                   	retq   
  400f4b:	0f 1f 44 00 00       	nopl   0x0(%rax,%rax,1)
  400f50:	f3 c3                	repz retq 
  400f52:	0f 1f 40 00          	nopl   0x0(%rax)
  400f56:	66 2e 0f 1f 84 00 00 	nopw   %cs:0x0(%rax,%rax,1)
  400f5d:	00 00 00 

0000000000400f60 <frame_dummy>:
  400f60:	55                   	push   %rbp
  400f61:	48 89 e5             	mov    %rsp,%rbp
  400f64:	5d                   	pop    %rbp
  400f65:	eb 89                	jmp    400ef0 <register_tm_clones>

0000000000400f67 <usage>:
  400f67:	48 83 ec 08          	sub    $0x8,%rsp
  400f6b:	48 89 fa             	mov    %rdi,%rdx
  400f6e:	83 3d 93 45 20 00 00 	cmpl   $0x0,0x204593(%rip)        # 605508 <is_checker>
  400f75:	74 50                	je     400fc7 <usage+0x60>
  400f77:	48 8d 35 5a 20 00 00 	lea    0x205a(%rip),%rsi        # 402fd8 <_IO_stdin_used+0x8>
  400f7e:	bf 01 00 00 00       	mov    $0x1,%edi
  400f83:	b8 00 00 00 00       	mov    $0x0,%eax
  400f88:	e8 53 fe ff ff       	callq  400de0 <__printf_chk@plt>
  400f8d:	48 8d 3d 7c 20 00 00 	lea    0x207c(%rip),%rdi        # 403010 <_IO_stdin_used+0x40>
  400f94:	e8 27 fd ff ff       	callq  400cc0 <puts@plt>
  400f99:	48 8d 3d e8 21 00 00 	lea    0x21e8(%rip),%rdi        # 403188 <_IO_stdin_used+0x1b8>
  400fa0:	e8 1b fd ff ff       	callq  400cc0 <puts@plt>
  400fa5:	48 8d 3d 8c 20 00 00 	lea    0x208c(%rip),%rdi        # 403038 <_IO_stdin_used+0x68>
  400fac:	e8 0f fd ff ff       	callq  400cc0 <puts@plt>
  400fb1:	48 8d 3d ea 21 00 00 	lea    0x21ea(%rip),%rdi        # 4031a2 <_IO_stdin_used+0x1d2>
  400fb8:	e8 03 fd ff ff       	callq  400cc0 <puts@plt>
  400fbd:	bf 00 00 00 00       	mov    $0x0,%edi
  400fc2:	e8 69 fe ff ff       	callq  400e30 <exit@plt>
  400fc7:	48 8d 35 f0 21 00 00 	lea    0x21f0(%rip),%rsi        # 4031be <_IO_stdin_used+0x1ee>
  400fce:	bf 01 00 00 00       	mov    $0x1,%edi
  400fd3:	b8 00 00 00 00       	mov    $0x0,%eax
  400fd8:	e8 03 fe ff ff       	callq  400de0 <__printf_chk@plt>
  400fdd:	48 8d 3d 7c 20 00 00 	lea    0x207c(%rip),%rdi        # 403060 <_IO_stdin_used+0x90>
  400fe4:	e8 d7 fc ff ff       	callq  400cc0 <puts@plt>
  400fe9:	48 8d 3d 98 20 00 00 	lea    0x2098(%rip),%rdi        # 403088 <_IO_stdin_used+0xb8>
  400ff0:	e8 cb fc ff ff       	callq  400cc0 <puts@plt>
  400ff5:	48 8d 3d e0 21 00 00 	lea    0x21e0(%rip),%rdi        # 4031dc <_IO_stdin_used+0x20c>
  400ffc:	e8 bf fc ff ff       	callq  400cc0 <puts@plt>
  401001:	eb ba                	jmp    400fbd <usage+0x56>

0000000000401003 <initialize_target>:
  401003:	55                   	push   %rbp
  401004:	53                   	push   %rbx
  401005:	48 81 ec 18 21 00 00 	sub    $0x2118,%rsp
  40100c:	89 f5                	mov    %esi,%ebp
  40100e:	64 48 8b 04 25 28 00 	mov    %fs:0x28,%rax
  401015:	00 00 
  401017:	48 89 84 24 08 21 00 	mov    %rax,0x2108(%rsp)
  40101e:	00 
  40101f:	31 c0                	xor    %eax,%eax
  401021:	89 3d d1 44 20 00    	mov    %edi,0x2044d1(%rip)        # 6054f8 <check_level>
  401027:	8b 3d 03 41 20 00    	mov    0x204103(%rip),%edi        # 605130 <target_id>
  40102d:	e8 fa 1e 00 00       	callq  402f2c <gencookie>
  401032:	89 05 cc 44 20 00    	mov    %eax,0x2044cc(%rip)        # 605504 <cookie>
  401038:	89 c7                	mov    %eax,%edi
  40103a:	e8 ed 1e 00 00       	callq  402f2c <gencookie>
  40103f:	89 05 bb 44 20 00    	mov    %eax,0x2044bb(%rip)        # 605500 <authkey>
  401045:	8b 05 e5 40 20 00    	mov    0x2040e5(%rip),%eax        # 605130 <target_id>
  40104b:	8d 78 01             	lea    0x1(%rax),%edi
  40104e:	e8 3d fc ff ff       	callq  400c90 <srandom@plt>
  401053:	e8 48 fd ff ff       	callq  400da0 <random@plt>
  401058:	89 c7                	mov    %eax,%edi
  40105a:	e8 1a 03 00 00       	callq  401379 <scramble>
  40105f:	89 c3                	mov    %eax,%ebx
  401061:	85 ed                	test   %ebp,%ebp
  401063:	75 54                	jne    4010b9 <initialize_target+0xb6>
  401065:	b8 00 00 00 00       	mov    $0x0,%eax
  40106a:	01 d8                	add    %ebx,%eax
  40106c:	0f b7 c0             	movzwl %ax,%eax
  40106f:	8d 04 c5 00 01 00 00 	lea    0x100(,%rax,8),%eax
  401076:	89 c0                	mov    %eax,%eax
  401078:	48 89 05 01 44 20 00 	mov    %rax,0x204401(%rip)        # 605480 <buf_offset>
  40107f:	c6 05 a2 50 20 00 72 	movb   $0x72,0x2050a2(%rip)        # 606128 <target_prefix>
  401086:	83 3d fb 43 20 00 00 	cmpl   $0x0,0x2043fb(%rip)        # 605488 <notify>
  40108d:	74 09                	je     401098 <initialize_target+0x95>
  40108f:	83 3d 72 44 20 00 00 	cmpl   $0x0,0x204472(%rip)        # 605508 <is_checker>
  401096:	74 39                	je     4010d1 <initialize_target+0xce>
  401098:	48 8b 84 24 08 21 00 	mov    0x2108(%rsp),%rax
  40109f:	00 
  4010a0:	64 48 33 04 25 28 00 	xor    %fs:0x28,%rax
  4010a7:	00 00 
  4010a9:	0f 85 da 00 00 00    	jne    401189 <initialize_target+0x186>
  4010af:	48 81 c4 18 21 00 00 	add    $0x2118,%rsp
  4010b6:	5b                   	pop    %rbx
  4010b7:	5d                   	pop    %rbp
  4010b8:	c3                   	retq   
  4010b9:	bf 00 00 00 00       	mov    $0x0,%edi
  4010be:	e8 cd fc ff ff       	callq  400d90 <time@plt>
  4010c3:	89 c7                	mov    %eax,%edi
  4010c5:	e8 c6 fb ff ff       	callq  400c90 <srandom@plt>
  4010ca:	e8 d1 fc ff ff       	callq  400da0 <random@plt>
  4010cf:	eb 99                	jmp    40106a <initialize_target+0x67>
  4010d1:	48 89 e7             	mov    %rsp,%rdi
  4010d4:	be 00 01 00 00       	mov    $0x100,%esi
  4010d9:	e8 42 fd ff ff       	callq  400e20 <gethostname@plt>
  4010de:	89 c5                	mov    %eax,%ebp
  4010e0:	85 c0                	test   %eax,%eax
  4010e2:	75 26                	jne    40110a <initialize_target+0x107>
  4010e4:	89 c3                	mov    %eax,%ebx
  4010e6:	48 63 c3             	movslq %ebx,%rax
  4010e9:	48 8d 15 70 40 20 00 	lea    0x204070(%rip),%rdx        # 605160 <host_table>
  4010f0:	48 8b 3c c2          	mov    (%rdx,%rax,8),%rdi
  4010f4:	48 85 ff             	test   %rdi,%rdi
  4010f7:	74 2c                	je     401125 <initialize_target+0x122>
  4010f9:	48 89 e6             	mov    %rsp,%rsi
  4010fc:	e8 6f fb ff ff       	callq  400c70 <strcasecmp@plt>
  401101:	85 c0                	test   %eax,%eax
  401103:	74 1b                	je     401120 <initialize_target+0x11d>
  401105:	83 c3 01             	add    $0x1,%ebx
  401108:	eb dc                	jmp    4010e6 <initialize_target+0xe3>
  40110a:	48 8d 3d a7 1f 00 00 	lea    0x1fa7(%rip),%rdi        # 4030b8 <_IO_stdin_used+0xe8>
  401111:	e8 aa fb ff ff       	callq  400cc0 <puts@plt>
  401116:	bf 08 00 00 00       	mov    $0x8,%edi
  40111b:	e8 10 fd ff ff       	callq  400e30 <exit@plt>
  401120:	bd 01 00 00 00       	mov    $0x1,%ebp
  401125:	85 ed                	test   %ebp,%ebp
  401127:	74 3d                	je     401166 <initialize_target+0x163>
  401129:	48 8d bc 24 00 01 00 	lea    0x100(%rsp),%rdi
  401130:	00 
  401131:	e8 26 1b 00 00       	callq  402c5c <init_driver>
  401136:	85 c0                	test   %eax,%eax
  401138:	0f 89 5a ff ff ff    	jns    401098 <initialize_target+0x95>
  40113e:	48 8d 94 24 00 01 00 	lea    0x100(%rsp),%rdx
  401145:	00 
  401146:	48 8d 35 e3 1f 00 00 	lea    0x1fe3(%rip),%rsi        # 403130 <_IO_stdin_used+0x160>
  40114d:	bf 01 00 00 00       	mov    $0x1,%edi
  401152:	b8 00 00 00 00       	mov    $0x0,%eax
  401157:	e8 84 fc ff ff       	callq  400de0 <__printf_chk@plt>
  40115c:	bf 08 00 00 00       	mov    $0x8,%edi
  401161:	e8 ca fc ff ff       	callq  400e30 <exit@plt>
  401166:	48 89 e2             	mov    %rsp,%rdx
  401169:	48 8d 35 80 1f 00 00 	lea    0x1f80(%rip),%rsi        # 4030f0 <_IO_stdin_used+0x120>
  401170:	bf 01 00 00 00       	mov    $0x1,%edi
  401175:	b8 00 00 00 00       	mov    $0x0,%eax
  40117a:	e8 61 fc ff ff       	callq  400de0 <__printf_chk@plt>
  40117f:	bf 08 00 00 00       	mov    $0x8,%edi
  401184:	e8 a7 fc ff ff       	callq  400e30 <exit@plt>
  401189:	e8 52 fb ff ff       	callq  400ce0 <__stack_chk_fail@plt>

000000000040118e <main>:
  40118e:	41 56                	push   %r14
  401190:	41 55                	push   %r13
  401192:	41 54                	push   %r12
  401194:	55                   	push   %rbp
  401195:	53                   	push   %rbx
  401196:	41 89 fc             	mov    %edi,%r12d
  401199:	48 89 f3             	mov    %rsi,%rbx
  40119c:	48 c7 c6 63 1f 40 00 	mov    $0x401f63,%rsi
  4011a3:	bf 0b 00 00 00       	mov    $0xb,%edi
  4011a8:	e8 93 fb ff ff       	callq  400d40 <signal@plt>
  4011ad:	48 c7 c6 0f 1f 40 00 	mov    $0x401f0f,%rsi
  4011b4:	bf 07 00 00 00       	mov    $0x7,%edi
  4011b9:	e8 82 fb ff ff       	callq  400d40 <signal@plt>
  4011be:	48 c7 c6 b7 1f 40 00 	mov    $0x401fb7,%rsi
  4011c5:	bf 04 00 00 00       	mov    $0x4,%edi
  4011ca:	e8 71 fb ff ff       	callq  400d40 <signal@plt>
  4011cf:	83 3d 32 43 20 00 00 	cmpl   $0x0,0x204332(%rip)        # 605508 <is_checker>
  4011d6:	75 26                	jne    4011fe <main+0x70>
  4011d8:	48 8d 2d 16 20 00 00 	lea    0x2016(%rip),%rbp        # 4031f5 <_IO_stdin_used+0x225>
  4011df:	48 8b 05 ba 42 20 00 	mov    0x2042ba(%rip),%rax        # 6054a0 <stdin@@GLIBC_2.2.5>
  4011e6:	48 89 05 03 43 20 00 	mov    %rax,0x204303(%rip)        # 6054f0 <infile>
  4011ed:	41 bd 00 00 00 00    	mov    $0x0,%r13d
  4011f3:	41 be 00 00 00 00    	mov    $0x0,%r14d
  4011f9:	e9 8d 00 00 00       	jmpq   40128b <main+0xfd>
  4011fe:	48 c7 c6 0b 20 40 00 	mov    $0x40200b,%rsi
  401205:	bf 0e 00 00 00       	mov    $0xe,%edi
  40120a:	e8 31 fb ff ff       	callq  400d40 <signal@plt>
  40120f:	bf 05 00 00 00       	mov    $0x5,%edi
  401214:	e8 f7 fa ff ff       	callq  400d10 <alarm@plt>
  401219:	48 8d 2d da 1f 00 00 	lea    0x1fda(%rip),%rbp        # 4031fa <_IO_stdin_used+0x22a>
  401220:	eb bd                	jmp    4011df <main+0x51>
  401222:	48 8b 3b             	mov    (%rbx),%rdi
  401225:	e8 3d fd ff ff       	callq  400f67 <usage>
  40122a:	48 8d 35 4c 22 00 00 	lea    0x224c(%rip),%rsi        # 40347d <_IO_stdin_used+0x4ad>
  401231:	48 8b 3d 70 42 20 00 	mov    0x204270(%rip),%rdi        # 6054a8 <optarg@@GLIBC_2.2.5>
  401238:	e8 b3 fb ff ff       	callq  400df0 <fopen@plt>
  40123d:	48 89 05 ac 42 20 00 	mov    %rax,0x2042ac(%rip)        # 6054f0 <infile>
  401244:	48 85 c0             	test   %rax,%rax
  401247:	75 42                	jne    40128b <main+0xfd>
  401249:	48 8b 0d 58 42 20 00 	mov    0x204258(%rip),%rcx        # 6054a8 <optarg@@GLIBC_2.2.5>
  401250:	48 8d 15 ab 1f 00 00 	lea    0x1fab(%rip),%rdx        # 403202 <_IO_stdin_used+0x232>
  401257:	be 01 00 00 00       	mov    $0x1,%esi
  40125c:	48 8b 3d 5d 42 20 00 	mov    0x20425d(%rip),%rdi        # 6054c0 <stderr@@GLIBC_2.2.5>
  401263:	e8 e8 fb ff ff       	callq  400e50 <__fprintf_chk@plt>
  401268:	b8 01 00 00 00       	mov    $0x1,%eax
  40126d:	e9 d9 00 00 00       	jmpq   40134b <main+0x1bd>
  401272:	ba 10 00 00 00       	mov    $0x10,%edx
  401277:	be 00 00 00 00       	mov    $0x0,%esi
  40127c:	48 8b 3d 25 42 20 00 	mov    0x204225(%rip),%rdi        # 6054a8 <optarg@@GLIBC_2.2.5>
  401283:	e8 88 fb ff ff       	callq  400e10 <strtoul@plt>
  401288:	41 89 c6             	mov    %eax,%r14d
  40128b:	48 89 ea             	mov    %rbp,%rdx
  40128e:	48 89 de             	mov    %rbx,%rsi
  401291:	44 89 e7             	mov    %r12d,%edi
  401294:	e8 67 fb ff ff       	callq  400e00 <getopt@plt>
  401299:	3c ff                	cmp    $0xff,%al
  40129b:	74 62                	je     4012ff <main+0x171>
  40129d:	0f be d0             	movsbl %al,%edx
  4012a0:	83 e8 61             	sub    $0x61,%eax
  4012a3:	3c 10                	cmp    $0x10,%al
  4012a5:	77 3a                	ja     4012e1 <main+0x153>
  4012a7:	0f b6 c0             	movzbl %al,%eax
  4012aa:	48 8d 0d 8f 1f 00 00 	lea    0x1f8f(%rip),%rcx        # 403240 <_IO_stdin_used+0x270>
  4012b1:	48 63 04 81          	movslq (%rcx,%rax,4),%rax
  4012b5:	48 01 c8             	add    %rcx,%rax
  4012b8:	ff e0                	jmpq   *%rax
  4012ba:	ba 0a 00 00 00       	mov    $0xa,%edx
  4012bf:	be 00 00 00 00       	mov    $0x0,%esi
  4012c4:	48 8b 3d dd 41 20 00 	mov    0x2041dd(%rip),%rdi        # 6054a8 <optarg@@GLIBC_2.2.5>
  4012cb:	e8 a0 fa ff ff       	callq  400d70 <strtol@plt>
  4012d0:	41 89 c5             	mov    %eax,%r13d
  4012d3:	eb b6                	jmp    40128b <main+0xfd>
  4012d5:	c7 05 a9 41 20 00 00 	movl   $0x0,0x2041a9(%rip)        # 605488 <notify>
  4012dc:	00 00 00 
  4012df:	eb aa                	jmp    40128b <main+0xfd>
  4012e1:	48 8d 35 37 1f 00 00 	lea    0x1f37(%rip),%rsi        # 40321f <_IO_stdin_used+0x24f>
  4012e8:	bf 01 00 00 00       	mov    $0x1,%edi
  4012ed:	b8 00 00 00 00       	mov    $0x0,%eax
  4012f2:	e8 e9 fa ff ff       	callq  400de0 <__printf_chk@plt>
  4012f7:	48 8b 3b             	mov    (%rbx),%rdi
  4012fa:	e8 68 fc ff ff       	callq  400f67 <usage>
  4012ff:	be 01 00 00 00       	mov    $0x1,%esi
  401304:	44 89 ef             	mov    %r13d,%edi
  401307:	e8 f7 fc ff ff       	callq  401003 <initialize_target>
  40130c:	83 3d f5 41 20 00 00 	cmpl   $0x0,0x2041f5(%rip)        # 605508 <is_checker>
  401313:	74 09                	je     40131e <main+0x190>
  401315:	44 39 35 e4 41 20 00 	cmp    %r14d,0x2041e4(%rip)        # 605500 <authkey>
  40131c:	75 36                	jne    401354 <main+0x1c6>
  40131e:	8b 15 e0 41 20 00    	mov    0x2041e0(%rip),%edx        # 605504 <cookie>
  401324:	48 8d 35 07 1f 00 00 	lea    0x1f07(%rip),%rsi        # 403232 <_IO_stdin_used+0x262>
  40132b:	bf 01 00 00 00       	mov    $0x1,%edi
  401330:	b8 00 00 00 00       	mov    $0x0,%eax
  401335:	e8 a6 fa ff ff       	callq  400de0 <__printf_chk@plt>
  40133a:	48 8b 3d 3f 41 20 00 	mov    0x20413f(%rip),%rdi        # 605480 <buf_offset>
  401341:	e8 1c 0d 00 00       	callq  402062 <launch>
  401346:	b8 00 00 00 00       	mov    $0x0,%eax
  40134b:	5b                   	pop    %rbx
  40134c:	5d                   	pop    %rbp
  40134d:	41 5c                	pop    %r12
  40134f:	41 5d                	pop    %r13
  401351:	41 5e                	pop    %r14
  401353:	c3                   	retq   
  401354:	44 89 f2             	mov    %r14d,%edx
  401357:	48 8d 35 fa 1d 00 00 	lea    0x1dfa(%rip),%rsi        # 403158 <_IO_stdin_used+0x188>
  40135e:	bf 01 00 00 00       	mov    $0x1,%edi
  401363:	b8 00 00 00 00       	mov    $0x0,%eax
  401368:	e8 73 fa ff ff       	callq  400de0 <__printf_chk@plt>
  40136d:	b8 00 00 00 00       	mov    $0x0,%eax
  401372:	e8 f8 07 00 00       	callq  401b6f <check_fail>
  401377:	eb a5                	jmp    40131e <main+0x190>

0000000000401379 <scramble>:
  401379:	48 83 ec 38          	sub    $0x38,%rsp
  40137d:	64 48 8b 04 25 28 00 	mov    %fs:0x28,%rax
  401384:	00 00 
  401386:	48 89 44 24 28       	mov    %rax,0x28(%rsp)
  40138b:	31 c0                	xor    %eax,%eax
  40138d:	eb 10                	jmp    40139f <scramble+0x26>
  40138f:	69 d0 c2 2d 00 00    	imul   $0x2dc2,%eax,%edx
  401395:	01 fa                	add    %edi,%edx
  401397:	89 c1                	mov    %eax,%ecx
  401399:	89 14 8c             	mov    %edx,(%rsp,%rcx,4)
  40139c:	83 c0 01             	add    $0x1,%eax
  40139f:	83 f8 09             	cmp    $0x9,%eax
  4013a2:	76 eb                	jbe    40138f <scramble+0x16>
  4013a4:	8b 04 24             	mov    (%rsp),%eax
  4013a7:	69 c0 81 e1 00 00    	imul   $0xe181,%eax,%eax
  4013ad:	89 04 24             	mov    %eax,(%rsp)
  4013b0:	8b 44 24 18          	mov    0x18(%rsp),%eax
  4013b4:	69 c0 ca 7c 00 00    	imul   $0x7cca,%eax,%eax
  4013ba:	89 44 24 18          	mov    %eax,0x18(%rsp)
  4013be:	8b 44 24 08          	mov    0x8(%rsp),%eax
  4013c2:	69 c0 92 c1 00 00    	imul   $0xc192,%eax,%eax
  4013c8:	89 44 24 08          	mov    %eax,0x8(%rsp)
  4013cc:	8b 44 24 20          	mov    0x20(%rsp),%eax
  4013d0:	69 c0 05 42 00 00    	imul   $0x4205,%eax,%eax
  4013d6:	89 44 24 20          	mov    %eax,0x20(%rsp)
  4013da:	8b 44 24 0c          	mov    0xc(%rsp),%eax
  4013de:	69 c0 6a 62 00 00    	imul   $0x626a,%eax,%eax
  4013e4:	89 44 24 0c          	mov    %eax,0xc(%rsp)
  4013e8:	8b 44 24 20          	mov    0x20(%rsp),%eax
  4013ec:	69 c0 68 17 00 00    	imul   $0x1768,%eax,%eax
  4013f2:	89 44 24 20          	mov    %eax,0x20(%rsp)
  4013f6:	8b 44 24 18          	mov    0x18(%rsp),%eax
  4013fa:	69 c0 6f 4d 00 00    	imul   $0x4d6f,%eax,%eax
  401400:	89 44 24 18          	mov    %eax,0x18(%rsp)
  401404:	8b 44 24 14          	mov    0x14(%rsp),%eax
  401408:	69 c0 51 c4 00 00    	imul   $0xc451,%eax,%eax
  40140e:	89 44 24 14          	mov    %eax,0x14(%rsp)
  401412:	8b 44 24 08          	mov    0x8(%rsp),%eax
  401416:	69 c0 f0 3a 00 00    	imul   $0x3af0,%eax,%eax
  40141c:	89 44 24 08          	mov    %eax,0x8(%rsp)
  401420:	8b 44 24 0c          	mov    0xc(%rsp),%eax
  401424:	69 c0 e3 c1 00 00    	imul   $0xc1e3,%eax,%eax
  40142a:	89 44 24 0c          	mov    %eax,0xc(%rsp)
  40142e:	8b 44 24 10          	mov    0x10(%rsp),%eax
  401432:	69 c0 90 e1 00 00    	imul   $0xe190,%eax,%eax
  401438:	89 44 24 10          	mov    %eax,0x10(%rsp)
  40143c:	8b 44 24 18          	mov    0x18(%rsp),%eax
  401440:	69 c0 c7 7c 00 00    	imul   $0x7cc7,%eax,%eax
  401446:	89 44 24 18          	mov    %eax,0x18(%rsp)
  40144a:	8b 44 24 08          	mov    0x8(%rsp),%eax
  40144e:	69 c0 61 6e 00 00    	imul   $0x6e61,%eax,%eax
  401454:	89 44 24 08          	mov    %eax,0x8(%rsp)
  401458:	8b 44 24 04          	mov    0x4(%rsp),%eax
  40145c:	69 c0 4e e3 00 00    	imul   $0xe34e,%eax,%eax
  401462:	89 44 24 04          	mov    %eax,0x4(%rsp)
  401466:	8b 44 24 14          	mov    0x14(%rsp),%eax
  40146a:	69 c0 f0 15 00 00    	imul   $0x15f0,%eax,%eax
  401470:	89 44 24 14          	mov    %eax,0x14(%rsp)
  401474:	8b 44 24 0c          	mov    0xc(%rsp),%eax
  401478:	69 c0 2d 77 00 00    	imul   $0x772d,%eax,%eax
  40147e:	89 44 24 0c          	mov    %eax,0xc(%rsp)
  401482:	8b 44 24 14          	mov    0x14(%rsp),%eax
  401486:	69 c0 81 ce 00 00    	imul   $0xce81,%eax,%eax
  40148c:	89 44 24 14          	mov    %eax,0x14(%rsp)
  401490:	8b 44 24 14          	mov    0x14(%rsp),%eax
  401494:	69 c0 ad c4 00 00    	imul   $0xc4ad,%eax,%eax
  40149a:	89 44 24 14          	mov    %eax,0x14(%rsp)
  40149e:	8b 44 24 1c          	mov    0x1c(%rsp),%eax
  4014a2:	69 c0 8b 53 00 00    	imul   $0x538b,%eax,%eax
  4014a8:	89 44 24 1c          	mov    %eax,0x1c(%rsp)
  4014ac:	8b 04 24             	mov    (%rsp),%eax
  4014af:	69 c0 3b 80 00 00    	imul   $0x803b,%eax,%eax
  4014b5:	89 04 24             	mov    %eax,(%rsp)
  4014b8:	8b 44 24 08          	mov    0x8(%rsp),%eax
  4014bc:	69 c0 96 31 00 00    	imul   $0x3196,%eax,%eax
  4014c2:	89 44 24 08          	mov    %eax,0x8(%rsp)
  4014c6:	8b 44 24 0c          	mov    0xc(%rsp),%eax
  4014ca:	69 c0 aa 9d 00 00    	imul   $0x9daa,%eax,%eax
  4014d0:	89 44 24 0c          	mov    %eax,0xc(%rsp)
  4014d4:	8b 44 24 24          	mov    0x24(%rsp),%eax
  4014d8:	69 c0 28 40 00 00    	imul   $0x4028,%eax,%eax
  4014de:	89 44 24 24          	mov    %eax,0x24(%rsp)
  4014e2:	8b 44 24 08          	mov    0x8(%rsp),%eax
  4014e6:	69 c0 7a 37 00 00    	imul   $0x377a,%eax,%eax
  4014ec:	89 44 24 08          	mov    %eax,0x8(%rsp)
  4014f0:	8b 44 24 10          	mov    0x10(%rsp),%eax
  4014f4:	69 c0 7e 6b 00 00    	imul   $0x6b7e,%eax,%eax
  4014fa:	89 44 24 10          	mov    %eax,0x10(%rsp)
  4014fe:	8b 44 24 20          	mov    0x20(%rsp),%eax
  401502:	69 c0 1b bd 00 00    	imul   $0xbd1b,%eax,%eax
  401508:	89 44 24 20          	mov    %eax,0x20(%rsp)
  40150c:	8b 44 24 24          	mov    0x24(%rsp),%eax
  401510:	69 c0 c0 a8 00 00    	imul   $0xa8c0,%eax,%eax
  401516:	89 44 24 24          	mov    %eax,0x24(%rsp)
  40151a:	8b 04 24             	mov    (%rsp),%eax
  40151d:	69 c0 62 cd 00 00    	imul   $0xcd62,%eax,%eax
  401523:	89 04 24             	mov    %eax,(%rsp)
  401526:	8b 44 24 18          	mov    0x18(%rsp),%eax
  40152a:	69 c0 41 7e 00 00    	imul   $0x7e41,%eax,%eax
  401530:	89 44 24 18          	mov    %eax,0x18(%rsp)
  401534:	8b 04 24             	mov    (%rsp),%eax
  401537:	69 c0 8d 60 00 00    	imul   $0x608d,%eax,%eax
  40153d:	89 04 24             	mov    %eax,(%rsp)
  401540:	8b 44 24 10          	mov    0x10(%rsp),%eax
  401544:	69 c0 2e 20 00 00    	imul   $0x202e,%eax,%eax
  40154a:	89 44 24 10          	mov    %eax,0x10(%rsp)
  40154e:	8b 44 24 04          	mov    0x4(%rsp),%eax
  401552:	69 c0 a3 8b 00 00    	imul   $0x8ba3,%eax,%eax
  401558:	89 44 24 04          	mov    %eax,0x4(%rsp)
  40155c:	8b 44 24 1c          	mov    0x1c(%rsp),%eax
  401560:	69 c0 b2 cb 00 00    	imul   $0xcbb2,%eax,%eax
  401566:	89 44 24 1c          	mov    %eax,0x1c(%rsp)
  40156a:	8b 44 24 24          	mov    0x24(%rsp),%eax
  40156e:	69 c0 c3 7e 00 00    	imul   $0x7ec3,%eax,%eax
  401574:	89 44 24 24          	mov    %eax,0x24(%rsp)
  401578:	8b 04 24             	mov    (%rsp),%eax
  40157b:	69 c0 04 57 00 00    	imul   $0x5704,%eax,%eax
  401581:	89 04 24             	mov    %eax,(%rsp)
  401584:	8b 44 24 20          	mov    0x20(%rsp),%eax
  401588:	69 c0 33 d5 00 00    	imul   $0xd533,%eax,%eax
  40158e:	89 44 24 20          	mov    %eax,0x20(%rsp)
  401592:	8b 04 24             	mov    (%rsp),%eax
  401595:	69 c0 a2 96 00 00    	imul   $0x96a2,%eax,%eax
  40159b:	89 04 24             	mov    %eax,(%rsp)
  40159e:	8b 44 24 0c          	mov    0xc(%rsp),%eax
  4015a2:	69 c0 9f 07 00 00    	imul   $0x79f,%eax,%eax
  4015a8:	89 44 24 0c          	mov    %eax,0xc(%rsp)
  4015ac:	8b 44 24 14          	mov    0x14(%rsp),%eax
  4015b0:	69 c0 d9 d4 00 00    	imul   $0xd4d9,%eax,%eax
  4015b6:	89 44 24 14          	mov    %eax,0x14(%rsp)
  4015ba:	8b 44 24 0c          	mov    0xc(%rsp),%eax
  4015be:	69 c0 e3 51 00 00    	imul   $0x51e3,%eax,%eax
  4015c4:	89 44 24 0c          	mov    %eax,0xc(%rsp)
  4015c8:	8b 44 24 14          	mov    0x14(%rsp),%eax
  4015cc:	69 c0 77 38 00 00    	imul   $0x3877,%eax,%eax
  4015d2:	89 44 24 14          	mov    %eax,0x14(%rsp)
  4015d6:	8b 04 24             	mov    (%rsp),%eax
  4015d9:	69 c0 65 8d 00 00    	imul   $0x8d65,%eax,%eax
  4015df:	89 04 24             	mov    %eax,(%rsp)
  4015e2:	8b 44 24 20          	mov    0x20(%rsp),%eax
  4015e6:	69 c0 e2 48 00 00    	imul   $0x48e2,%eax,%eax
  4015ec:	89 44 24 20          	mov    %eax,0x20(%rsp)
  4015f0:	8b 44 24 1c          	mov    0x1c(%rsp),%eax
  4015f4:	69 c0 5a f8 00 00    	imul   $0xf85a,%eax,%eax
  4015fa:	89 44 24 1c          	mov    %eax,0x1c(%rsp)
  4015fe:	8b 44 24 14          	mov    0x14(%rsp),%eax
  401602:	69 c0 78 0b 00 00    	imul   $0xb78,%eax,%eax
  401608:	89 44 24 14          	mov    %eax,0x14(%rsp)
  40160c:	8b 44 24 20          	mov    0x20(%rsp),%eax
  401610:	69 c0 55 5b 00 00    	imul   $0x5b55,%eax,%eax
  401616:	89 44 24 20          	mov    %eax,0x20(%rsp)
  40161a:	8b 44 24 04          	mov    0x4(%rsp),%eax
  40161e:	69 c0 a1 30 00 00    	imul   $0x30a1,%eax,%eax
  401624:	89 44 24 04          	mov    %eax,0x4(%rsp)
  401628:	8b 44 24 04          	mov    0x4(%rsp),%eax
  40162c:	69 c0 56 1a 00 00    	imul   $0x1a56,%eax,%eax
  401632:	89 44 24 04          	mov    %eax,0x4(%rsp)
  401636:	8b 44 24 24          	mov    0x24(%rsp),%eax
  40163a:	69 c0 4a 37 00 00    	imul   $0x374a,%eax,%eax
  401640:	89 44 24 24          	mov    %eax,0x24(%rsp)
  401644:	8b 44 24 18          	mov    0x18(%rsp),%eax
  401648:	69 c0 91 1b 00 00    	imul   $0x1b91,%eax,%eax
  40164e:	89 44 24 18          	mov    %eax,0x18(%rsp)
  401652:	8b 44 24 10          	mov    0x10(%rsp),%eax
  401656:	69 c0 17 98 00 00    	imul   $0x9817,%eax,%eax
  40165c:	89 44 24 10          	mov    %eax,0x10(%rsp)
  401660:	8b 44 24 18          	mov    0x18(%rsp),%eax
  401664:	69 c0 e8 16 00 00    	imul   $0x16e8,%eax,%eax
  40166a:	89 44 24 18          	mov    %eax,0x18(%rsp)
  40166e:	8b 44 24 24          	mov    0x24(%rsp),%eax
  401672:	69 c0 a2 63 00 00    	imul   $0x63a2,%eax,%eax
  401678:	89 44 24 24          	mov    %eax,0x24(%rsp)
  40167c:	8b 44 24 20          	mov    0x20(%rsp),%eax
  401680:	69 c0 85 05 00 00    	imul   $0x585,%eax,%eax
  401686:	89 44 24 20          	mov    %eax,0x20(%rsp)
  40168a:	8b 04 24             	mov    (%rsp),%eax
  40168d:	69 c0 a0 5d 00 00    	imul   $0x5da0,%eax,%eax
  401693:	89 04 24             	mov    %eax,(%rsp)
  401696:	8b 44 24 18          	mov    0x18(%rsp),%eax
  40169a:	69 c0 d3 78 00 00    	imul   $0x78d3,%eax,%eax
  4016a0:	89 44 24 18          	mov    %eax,0x18(%rsp)
  4016a4:	8b 44 24 14          	mov    0x14(%rsp),%eax
  4016a8:	69 c0 67 66 00 00    	imul   $0x6667,%eax,%eax
  4016ae:	89 44 24 14          	mov    %eax,0x14(%rsp)
  4016b2:	8b 44 24 04          	mov    0x4(%rsp),%eax
  4016b6:	69 c0 50 77 00 00    	imul   $0x7750,%eax,%eax
  4016bc:	89 44 24 04          	mov    %eax,0x4(%rsp)
  4016c0:	8b 44 24 08          	mov    0x8(%rsp),%eax
  4016c4:	69 c0 01 61 00 00    	imul   $0x6101,%eax,%eax
  4016ca:	89 44 24 08          	mov    %eax,0x8(%rsp)
  4016ce:	8b 44 24 1c          	mov    0x1c(%rsp),%eax
  4016d2:	69 c0 6d 76 00 00    	imul   $0x766d,%eax,%eax
  4016d8:	89 44 24 1c          	mov    %eax,0x1c(%rsp)
  4016dc:	8b 44 24 18          	mov    0x18(%rsp),%eax
  4016e0:	69 c0 91 c8 00 00    	imul   $0xc891,%eax,%eax
  4016e6:	89 44 24 18          	mov    %eax,0x18(%rsp)
  4016ea:	8b 04 24             	mov    (%rsp),%eax
  4016ed:	69 c0 20 98 00 00    	imul   $0x9820,%eax,%eax
  4016f3:	89 04 24             	mov    %eax,(%rsp)
  4016f6:	8b 44 24 20          	mov    0x20(%rsp),%eax
  4016fa:	69 c0 bb b8 00 00    	imul   $0xb8bb,%eax,%eax
  401700:	89 44 24 20          	mov    %eax,0x20(%rsp)
  401704:	8b 44 24 04          	mov    0x4(%rsp),%eax
  401708:	69 c0 86 f5 00 00    	imul   $0xf586,%eax,%eax
  40170e:	89 44 24 04          	mov    %eax,0x4(%rsp)
  401712:	8b 44 24 1c          	mov    0x1c(%rsp),%eax
  401716:	69 c0 8f 4b 00 00    	imul   $0x4b8f,%eax,%eax
  40171c:	89 44 24 1c          	mov    %eax,0x1c(%rsp)
  401720:	8b 04 24             	mov    (%rsp),%eax
  401723:	69 c0 53 7e 00 00    	imul   $0x7e53,%eax,%eax
  401729:	89 04 24             	mov    %eax,(%rsp)
  40172c:	8b 44 24 14          	mov    0x14(%rsp),%eax
  401730:	69 c0 db 01 00 00    	imul   $0x1db,%eax,%eax
  401736:	89 44 24 14          	mov    %eax,0x14(%rsp)
  40173a:	8b 04 24             	mov    (%rsp),%eax
  40173d:	69 c0 60 12 00 00    	imul   $0x1260,%eax,%eax
  401743:	89 04 24             	mov    %eax,(%rsp)
  401746:	8b 44 24 24          	mov    0x24(%rsp),%eax
  40174a:	69 c0 c2 b3 00 00    	imul   $0xb3c2,%eax,%eax
  401750:	89 44 24 24          	mov    %eax,0x24(%rsp)
  401754:	8b 44 24 04          	mov    0x4(%rsp),%eax
  401758:	69 c0 fa 9d 00 00    	imul   $0x9dfa,%eax,%eax
  40175e:	89 44 24 04          	mov    %eax,0x4(%rsp)
  401762:	8b 44 24 04          	mov    0x4(%rsp),%eax
  401766:	69 c0 4e 6f 00 00    	imul   $0x6f4e,%eax,%eax
  40176c:	89 44 24 04          	mov    %eax,0x4(%rsp)
  401770:	8b 44 24 1c          	mov    0x1c(%rsp),%eax
  401774:	69 c0 7b a7 00 00    	imul   $0xa77b,%eax,%eax
  40177a:	89 44 24 1c          	mov    %eax,0x1c(%rsp)
  40177e:	8b 44 24 1c          	mov    0x1c(%rsp),%eax
  401782:	69 c0 06 1d 00 00    	imul   $0x1d06,%eax,%eax
  401788:	89 44 24 1c          	mov    %eax,0x1c(%rsp)
  40178c:	8b 44 24 04          	mov    0x4(%rsp),%eax
  401790:	69 c0 ff 84 00 00    	imul   $0x84ff,%eax,%eax
  401796:	89 44 24 04          	mov    %eax,0x4(%rsp)
  40179a:	8b 04 24             	mov    (%rsp),%eax
  40179d:	69 c0 75 8e 00 00    	imul   $0x8e75,%eax,%eax
  4017a3:	89 04 24             	mov    %eax,(%rsp)
  4017a6:	8b 04 24             	mov    (%rsp),%eax
  4017a9:	69 c0 81 ea 00 00    	imul   $0xea81,%eax,%eax
  4017af:	89 04 24             	mov    %eax,(%rsp)
  4017b2:	ba 00 00 00 00       	mov    $0x0,%edx
  4017b7:	b8 00 00 00 00       	mov    $0x0,%eax
  4017bc:	eb 0a                	jmp    4017c8 <scramble+0x44f>
  4017be:	89 d1                	mov    %edx,%ecx
  4017c0:	8b 0c 8c             	mov    (%rsp,%rcx,4),%ecx
  4017c3:	01 c8                	add    %ecx,%eax
  4017c5:	83 c2 01             	add    $0x1,%edx
  4017c8:	83 fa 09             	cmp    $0x9,%edx
  4017cb:	76 f1                	jbe    4017be <scramble+0x445>
  4017cd:	48 8b 74 24 28       	mov    0x28(%rsp),%rsi
  4017d2:	64 48 33 34 25 28 00 	xor    %fs:0x28,%rsi
  4017d9:	00 00 
  4017db:	75 05                	jne    4017e2 <scramble+0x469>
  4017dd:	48 83 c4 38          	add    $0x38,%rsp
  4017e1:	c3                   	retq   
  4017e2:	e8 f9 f4 ff ff       	callq  400ce0 <__stack_chk_fail@plt>

00000000004017e7 <getbuf>:
  4017e7:	48 83 ec 18          	sub    $0x18,%rsp
  4017eb:	48 89 e7             	mov    %rsp,%rdi
  4017ee:	e8 b4 03 00 00       	callq  401ba7 <Gets>
  4017f3:	b8 01 00 00 00       	mov    $0x1,%eax
  4017f8:	48 83 c4 18          	add    $0x18,%rsp
  4017fc:	c3                   	retq   

00000000004017fd <touch1>:
  4017fd:	48 83 ec 08          	sub    $0x8,%rsp
  401801:	c7 05 f1 3c 20 00 01 	movl   $0x1,0x203cf1(%rip)        # 6054fc <vlevel>
  401808:	00 00 00 
  40180b:	48 8d 3d bf 1a 00 00 	lea    0x1abf(%rip),%rdi        # 4032d1 <_IO_stdin_used+0x301>
  401812:	e8 a9 f4 ff ff       	callq  400cc0 <puts@plt>
  401817:	bf 01 00 00 00       	mov    $0x1,%edi
  40181c:	e8 f6 05 00 00       	callq  401e17 <validate>
  401821:	bf 00 00 00 00       	mov    $0x0,%edi
  401826:	e8 05 f6 ff ff       	callq  400e30 <exit@plt>

000000000040182b <touch2>:
  40182b:	48 83 ec 08          	sub    $0x8,%rsp
  40182f:	89 fa                	mov    %edi,%edx
  401831:	c7 05 c1 3c 20 00 02 	movl   $0x2,0x203cc1(%rip)        # 6054fc <vlevel>
  401838:	00 00 00 
  40183b:	39 3d c3 3c 20 00    	cmp    %edi,0x203cc3(%rip)        # 605504 <cookie>
  401841:	74 2a                	je     40186d <touch2+0x42>
  401843:	48 8d 35 d6 1a 00 00 	lea    0x1ad6(%rip),%rsi        # 403320 <_IO_stdin_used+0x350>
  40184a:	bf 01 00 00 00       	mov    $0x1,%edi
  40184f:	b8 00 00 00 00       	mov    $0x0,%eax
  401854:	e8 87 f5 ff ff       	callq  400de0 <__printf_chk@plt>
  401859:	bf 02 00 00 00       	mov    $0x2,%edi
  40185e:	e8 84 06 00 00       	callq  401ee7 <fail>
  401863:	bf 00 00 00 00       	mov    $0x0,%edi
  401868:	e8 c3 f5 ff ff       	callq  400e30 <exit@plt>
  40186d:	48 8d 35 84 1a 00 00 	lea    0x1a84(%rip),%rsi        # 4032f8 <_IO_stdin_used+0x328>
  401874:	bf 01 00 00 00       	mov    $0x1,%edi
  401879:	b8 00 00 00 00       	mov    $0x0,%eax
  40187e:	e8 5d f5 ff ff       	callq  400de0 <__printf_chk@plt>
  401883:	bf 02 00 00 00       	mov    $0x2,%edi
  401888:	e8 8a 05 00 00       	callq  401e17 <validate>
  40188d:	eb d4                	jmp    401863 <touch2+0x38>

000000000040188f <hexmatch>:
  40188f:	41 54                	push   %r12
  401891:	55                   	push   %rbp
  401892:	53                   	push   %rbx
  401893:	48 83 c4 80          	add    $0xffffffffffffff80,%rsp
  401897:	89 fd                	mov    %edi,%ebp
  401899:	48 89 f3             	mov    %rsi,%rbx
  40189c:	64 48 8b 04 25 28 00 	mov    %fs:0x28,%rax
  4018a3:	00 00 
  4018a5:	48 89 44 24 78       	mov    %rax,0x78(%rsp)
  4018aa:	31 c0                	xor    %eax,%eax
  4018ac:	e8 ef f4 ff ff       	callq  400da0 <random@plt>
  4018b1:	48 89 c1             	mov    %rax,%rcx
  4018b4:	48 ba 0b d7 a3 70 3d 	movabs $0xa3d70a3d70a3d70b,%rdx
  4018bb:	0a d7 a3 
  4018be:	48 f7 ea             	imul   %rdx
  4018c1:	48 01 ca             	add    %rcx,%rdx
  4018c4:	48 c1 fa 06          	sar    $0x6,%rdx
  4018c8:	48 89 c8             	mov    %rcx,%rax
  4018cb:	48 c1 f8 3f          	sar    $0x3f,%rax
  4018cf:	48 29 c2             	sub    %rax,%rdx
  4018d2:	48 8d 04 92          	lea    (%rdx,%rdx,4),%rax
  4018d6:	48 8d 14 80          	lea    (%rax,%rax,4),%rdx
  4018da:	48 8d 04 95 00 00 00 	lea    0x0(,%rdx,4),%rax
  4018e1:	00 
  4018e2:	48 29 c1             	sub    %rax,%rcx
  4018e5:	4c 8d 24 0c          	lea    (%rsp,%rcx,1),%r12
  4018e9:	41 89 e8             	mov    %ebp,%r8d
  4018ec:	48 8d 0d fb 19 00 00 	lea    0x19fb(%rip),%rcx        # 4032ee <_IO_stdin_used+0x31e>
  4018f3:	48 c7 c2 ff ff ff ff 	mov    $0xffffffffffffffff,%rdx
  4018fa:	be 01 00 00 00       	mov    $0x1,%esi
  4018ff:	4c 89 e7             	mov    %r12,%rdi
  401902:	b8 00 00 00 00       	mov    $0x0,%eax
  401907:	e8 54 f5 ff ff       	callq  400e60 <__sprintf_chk@plt>
  40190c:	ba 09 00 00 00       	mov    $0x9,%edx
  401911:	4c 89 e6             	mov    %r12,%rsi
  401914:	48 89 df             	mov    %rbx,%rdi
  401917:	e8 84 f3 ff ff       	callq  400ca0 <strncmp@plt>
  40191c:	85 c0                	test   %eax,%eax
  40191e:	0f 94 c0             	sete   %al
  401921:	48 8b 5c 24 78       	mov    0x78(%rsp),%rbx
  401926:	64 48 33 1c 25 28 00 	xor    %fs:0x28,%rbx
  40192d:	00 00 
  40192f:	75 0c                	jne    40193d <hexmatch+0xae>
  401931:	0f b6 c0             	movzbl %al,%eax
  401934:	48 83 ec 80          	sub    $0xffffffffffffff80,%rsp
  401938:	5b                   	pop    %rbx
  401939:	5d                   	pop    %rbp
  40193a:	41 5c                	pop    %r12
  40193c:	c3                   	retq   
  40193d:	e8 9e f3 ff ff       	callq  400ce0 <__stack_chk_fail@plt>

0000000000401942 <touch3>:
  401942:	53                   	push   %rbx
  401943:	48 89 fb             	mov    %rdi,%rbx
  401946:	c7 05 ac 3b 20 00 03 	movl   $0x3,0x203bac(%rip)        # 6054fc <vlevel>
  40194d:	00 00 00 
  401950:	48 89 fe             	mov    %rdi,%rsi
  401953:	8b 3d ab 3b 20 00    	mov    0x203bab(%rip),%edi        # 605504 <cookie>
  401959:	e8 31 ff ff ff       	callq  40188f <hexmatch>
  40195e:	85 c0                	test   %eax,%eax
  401960:	74 2d                	je     40198f <touch3+0x4d>
  401962:	48 89 da             	mov    %rbx,%rdx
  401965:	48 8d 35 dc 19 00 00 	lea    0x19dc(%rip),%rsi        # 403348 <_IO_stdin_used+0x378>
  40196c:	bf 01 00 00 00       	mov    $0x1,%edi
  401971:	b8 00 00 00 00       	mov    $0x0,%eax
  401976:	e8 65 f4 ff ff       	callq  400de0 <__printf_chk@plt>
  40197b:	bf 03 00 00 00       	mov    $0x3,%edi
  401980:	e8 92 04 00 00       	callq  401e17 <validate>
  401985:	bf 00 00 00 00       	mov    $0x0,%edi
  40198a:	e8 a1 f4 ff ff       	callq  400e30 <exit@plt>
  40198f:	48 89 da             	mov    %rbx,%rdx
  401992:	48 8d 35 d7 19 00 00 	lea    0x19d7(%rip),%rsi        # 403370 <_IO_stdin_used+0x3a0>
  401999:	bf 01 00 00 00       	mov    $0x1,%edi
  40199e:	b8 00 00 00 00       	mov    $0x0,%eax
  4019a3:	e8 38 f4 ff ff       	callq  400de0 <__printf_chk@plt>
  4019a8:	bf 03 00 00 00       	mov    $0x3,%edi
  4019ad:	e8 35 05 00 00       	callq  401ee7 <fail>
  4019b2:	eb d1                	jmp    401985 <touch3+0x43>

00000000004019b4 <test>:
  4019b4:	48 83 ec 08          	sub    $0x8,%rsp
  4019b8:	b8 00 00 00 00       	mov    $0x0,%eax
  4019bd:	e8 25 fe ff ff       	callq  4017e7 <getbuf>
  4019c2:	89 c2                	mov    %eax,%edx
  4019c4:	48 8d 35 cd 19 00 00 	lea    0x19cd(%rip),%rsi        # 403398 <_IO_stdin_used+0x3c8>
  4019cb:	bf 01 00 00 00       	mov    $0x1,%edi
  4019d0:	b8 00 00 00 00       	mov    $0x0,%eax
  4019d5:	e8 06 f4 ff ff       	callq  400de0 <__printf_chk@plt>
  4019da:	48 83 c4 08          	add    $0x8,%rsp
  4019de:	c3                   	retq   

00000000004019df <start_farm>:
  4019df:	b8 01 00 00 00       	mov    $0x1,%eax
  4019e4:	c3                   	retq   

00000000004019e5 <addval_475>:
  4019e5:	8d 87 18 90 90 90    	lea    -0x6f6f6fe8(%rdi),%eax
  4019eb:	c3                   	retq   

00000000004019ec <addval_399>:
  4019ec:	8d 87 58 90 90 c3    	lea    -0x3c6f6fa8(%rdi),%eax
  4019f2:	c3                   	retq   

00000000004019f3 <addval_230>:
  4019f3:	8d 87 58 89 c7 90    	lea    -0x6f3876a8(%rdi),%eax
  4019f9:	c3                   	retq   

00000000004019fa <getval_420>:
  4019fa:	b8 9b 1e 58 90       	mov    $0x90581e9b,%eax
  4019ff:	c3                   	retq   

0000000000401a00 <setval_344>:
  401a00:	c7 07 48 81 c7 c3    	movl   $0xc3c78148,(%rdi)
  401a06:	c3                   	retq   

0000000000401a07 <getval_201>:
  401a07:	b8 d8 90 c3 3f       	mov    $0x3fc390d8,%eax
  401a0c:	c3                   	retq   

0000000000401a0d <addval_313>:
  401a0d:	8d 87 79 48 89 c7    	lea    -0x3876b787(%rdi),%eax
  401a13:	c3                   	retq   

0000000000401a14 <setval_136>:
  401a14:	c7 07 1a 48 89 c7    	movl   $0xc789481a,(%rdi)
  401a1a:	c3                   	retq   

0000000000401a1b <mid_farm>:
  401a1b:	b8 01 00 00 00       	mov    $0x1,%eax
  401a20:	c3                   	retq   

0000000000401a21 <add_xy>:
  401a21:	48 8d 04 37          	lea    (%rdi,%rsi,1),%rax
  401a25:	c3                   	retq   

0000000000401a26 <setval_181>:
  401a26:	c7 07 89 d1 c2 a0    	movl   $0xa0c2d189,(%rdi)
  401a2c:	c3                   	retq   

0000000000401a2d <getval_195>:
  401a2d:	b8 48 09 e0 c3       	mov    $0xc3e00948,%eax
  401a32:	c3                   	retq   

0000000000401a33 <getval_489>:
  401a33:	b8 8b ce 84 c0       	mov    $0xc084ce8b,%eax
  401a38:	c3                   	retq   

0000000000401a39 <setval_492>:
  401a39:	c7 07 bf 48 89 e0    	movl   $0xe08948bf,(%rdi)
  401a3f:	c3                   	retq   

0000000000401a40 <setval_360>:
  401a40:	c7 07 89 d1 08 d2    	movl   $0xd208d189,(%rdi)
  401a46:	c3                   	retq   

0000000000401a47 <setval_384>:
  401a47:	c7 07 89 c2 20 db    	movl   $0xdb20c289,(%rdi)
  401a4d:	c3                   	retq   

0000000000401a4e <setval_417>:
  401a4e:	c7 07 89 d1 00 c0    	movl   $0xc000d189,(%rdi)
  401a54:	c3                   	retq   

0000000000401a55 <setval_257>:
  401a55:	c7 07 89 c2 20 db    	movl   $0xdb20c289,(%rdi)
  401a5b:	c3                   	retq   

0000000000401a5c <addval_242>:
  401a5c:	8d 87 48 89 e0 91    	lea    -0x6e1f76b8(%rdi),%eax
  401a62:	c3                   	retq   

0000000000401a63 <getval_478>:
  401a63:	b8 89 d1 20 c9       	mov    $0xc920d189,%eax
  401a68:	c3                   	retq   

0000000000401a69 <addval_463>:
  401a69:	8d 87 fb 89 ce c7    	lea    -0x38317605(%rdi),%eax
  401a6f:	c3                   	retq   

0000000000401a70 <addval_119>:
  401a70:	8d 87 99 c2 90 c3    	lea    -0x3c6f3d67(%rdi),%eax
  401a76:	c3                   	retq   

0000000000401a77 <setval_432>:
  401a77:	c7 07 48 89 e0 c1    	movl   $0xc1e08948,(%rdi)
  401a7d:	c3                   	retq   

0000000000401a7e <getval_170>:
  401a7e:	b8 89 c2 00 c9       	mov    $0xc900c289,%eax
  401a83:	c3                   	retq   

0000000000401a84 <setval_113>:
  401a84:	c7 07 88 c2 84 d2    	movl   $0xd284c288,(%rdi)
  401a8a:	c3                   	retq   

0000000000401a8b <getval_205>:
  401a8b:	b8 89 c2 48 db       	mov    $0xdb48c289,%eax
  401a90:	c3                   	retq   

0000000000401a91 <setval_166>:
  401a91:	c7 07 89 ce 18 c9    	movl   $0xc918ce89,(%rdi)
  401a97:	c3                   	retq   

0000000000401a98 <setval_186>:
  401a98:	c7 07 48 89 e0 91    	movl   $0x91e08948,(%rdi)
  401a9e:	c3                   	retq   

0000000000401a9f <getval_440>:
  401a9f:	b8 8b d1 84 db       	mov    $0xdb84d18b,%eax
  401aa4:	c3                   	retq   

0000000000401aa5 <addval_215>:
  401aa5:	8d 87 48 8b e0 c3    	lea    -0x3c1f74b8(%rdi),%eax
  401aab:	c3                   	retq   

0000000000401aac <setval_302>:
  401aac:	c7 07 8d ce 08 db    	movl   $0xdb08ce8d,(%rdi)
  401ab2:	c3                   	retq   

0000000000401ab3 <getval_111>:
  401ab3:	b8 1f 89 ce 94       	mov    $0x94ce891f,%eax
  401ab8:	c3                   	retq   

0000000000401ab9 <getval_419>:
  401ab9:	b8 c8 48 89 e0       	mov    $0xe08948c8,%eax
  401abe:	c3                   	retq   

0000000000401abf <setval_217>:
  401abf:	c7 07 8d c2 38 d2    	movl   $0xd238c28d,(%rdi)
  401ac5:	c3                   	retq   

0000000000401ac6 <getval_301>:
  401ac6:	b8 89 c2 48 c9       	mov    $0xc948c289,%eax
  401acb:	c3                   	retq   

0000000000401acc <getval_107>:
  401acc:	b8 40 89 e0 c3       	mov    $0xc3e08940,%eax
  401ad1:	c3                   	retq   

0000000000401ad2 <getval_260>:
  401ad2:	b8 99 d1 38 db       	mov    $0xdb38d199,%eax
  401ad7:	c3                   	retq   

0000000000401ad8 <setval_330>:
  401ad8:	c7 07 89 ce 00 c0    	movl   $0xc000ce89,(%rdi)
  401ade:	c3                   	retq   

0000000000401adf <setval_135>:
  401adf:	c7 07 89 d1 c1 89    	movl   $0x89c1d189,(%rdi)
  401ae5:	c3                   	retq   

0000000000401ae6 <getval_121>:
  401ae6:	b8 4d 89 d1 94       	mov    $0x94d1894d,%eax
  401aeb:	c3                   	retq   

0000000000401aec <addval_367>:
  401aec:	8d 87 5c 89 ce 90    	lea    -0x6f3176a4(%rdi),%eax
  401af2:	c3                   	retq   

0000000000401af3 <getval_271>:
  401af3:	b8 89 ce 20 c9       	mov    $0xc920ce89,%eax
  401af8:	c3                   	retq   

0000000000401af9 <end_farm>:
  401af9:	b8 01 00 00 00       	mov    $0x1,%eax
  401afe:	c3                   	retq   

0000000000401aff <save_char>:
  401aff:	8b 05 1f 46 20 00    	mov    0x20461f(%rip),%eax        # 606124 <gets_cnt>
  401b05:	3d ff 03 00 00       	cmp    $0x3ff,%eax
  401b0a:	7f 4a                	jg     401b56 <save_char+0x57>
  401b0c:	89 f9                	mov    %edi,%ecx
  401b0e:	c0 e9 04             	shr    $0x4,%cl
  401b11:	8d 14 40             	lea    (%rax,%rax,2),%edx
  401b14:	4c 8d 05 a5 1b 00 00 	lea    0x1ba5(%rip),%r8        # 4036c0 <trans_char>
  401b1b:	83 e1 0f             	and    $0xf,%ecx
  401b1e:	45 0f b6 0c 08       	movzbl (%r8,%rcx,1),%r9d
  401b23:	48 8d 0d f6 39 20 00 	lea    0x2039f6(%rip),%rcx        # 605520 <gets_buf>
  401b2a:	48 63 f2             	movslq %edx,%rsi
  401b2d:	44 88 0c 31          	mov    %r9b,(%rcx,%rsi,1)
  401b31:	8d 72 01             	lea    0x1(%rdx),%esi
  401b34:	83 e7 0f             	and    $0xf,%edi
  401b37:	41 0f b6 3c 38       	movzbl (%r8,%rdi,1),%edi
  401b3c:	48 63 f6             	movslq %esi,%rsi
  401b3f:	40 88 3c 31          	mov    %dil,(%rcx,%rsi,1)
  401b43:	83 c2 02             	add    $0x2,%edx
  401b46:	48 63 d2             	movslq %edx,%rdx
  401b49:	c6 04 11 20          	movb   $0x20,(%rcx,%rdx,1)
  401b4d:	83 c0 01             	add    $0x1,%eax
  401b50:	89 05 ce 45 20 00    	mov    %eax,0x2045ce(%rip)        # 606124 <gets_cnt>
  401b56:	f3 c3                	repz retq 

0000000000401b58 <save_term>:
  401b58:	8b 05 c6 45 20 00    	mov    0x2045c6(%rip),%eax        # 606124 <gets_cnt>
  401b5e:	8d 04 40             	lea    (%rax,%rax,2),%eax
  401b61:	48 98                	cltq   
  401b63:	48 8d 15 b6 39 20 00 	lea    0x2039b6(%rip),%rdx        # 605520 <gets_buf>
  401b6a:	c6 04 02 00          	movb   $0x0,(%rdx,%rax,1)
  401b6e:	c3                   	retq   

0000000000401b6f <check_fail>:
  401b6f:	48 83 ec 08          	sub    $0x8,%rsp
  401b73:	0f be 15 ae 45 20 00 	movsbl 0x2045ae(%rip),%edx        # 606128 <target_prefix>
  401b7a:	4c 8d 05 9f 39 20 00 	lea    0x20399f(%rip),%r8        # 605520 <gets_buf>
  401b81:	8b 0d 71 39 20 00    	mov    0x203971(%rip),%ecx        # 6054f8 <check_level>
  401b87:	48 8d 35 2d 18 00 00 	lea    0x182d(%rip),%rsi        # 4033bb <_IO_stdin_used+0x3eb>
  401b8e:	bf 01 00 00 00       	mov    $0x1,%edi
  401b93:	b8 00 00 00 00       	mov    $0x0,%eax
  401b98:	e8 43 f2 ff ff       	callq  400de0 <__printf_chk@plt>
  401b9d:	bf 01 00 00 00       	mov    $0x1,%edi
  401ba2:	e8 89 f2 ff ff       	callq  400e30 <exit@plt>

0000000000401ba7 <Gets>:
  401ba7:	41 54                	push   %r12
  401ba9:	55                   	push   %rbp
  401baa:	53                   	push   %rbx
  401bab:	49 89 fc             	mov    %rdi,%r12
  401bae:	c7 05 6c 45 20 00 00 	movl   $0x0,0x20456c(%rip)        # 606124 <gets_cnt>
  401bb5:	00 00 00 
  401bb8:	48 89 fb             	mov    %rdi,%rbx
  401bbb:	eb 11                	jmp    401bce <Gets+0x27>
  401bbd:	48 8d 6b 01          	lea    0x1(%rbx),%rbp
  401bc1:	88 03                	mov    %al,(%rbx)
  401bc3:	0f b6 f8             	movzbl %al,%edi
  401bc6:	e8 34 ff ff ff       	callq  401aff <save_char>
  401bcb:	48 89 eb             	mov    %rbp,%rbx
  401bce:	48 8b 3d 1b 39 20 00 	mov    0x20391b(%rip),%rdi        # 6054f0 <infile>
  401bd5:	e8 d6 f1 ff ff       	callq  400db0 <_IO_getc@plt>
  401bda:	83 f8 ff             	cmp    $0xffffffff,%eax
  401bdd:	74 05                	je     401be4 <Gets+0x3d>
  401bdf:	83 f8 0a             	cmp    $0xa,%eax
  401be2:	75 d9                	jne    401bbd <Gets+0x16>
  401be4:	c6 03 00             	movb   $0x0,(%rbx)
  401be7:	b8 00 00 00 00       	mov    $0x0,%eax
  401bec:	e8 67 ff ff ff       	callq  401b58 <save_term>
  401bf1:	4c 89 e0             	mov    %r12,%rax
  401bf4:	5b                   	pop    %rbx
  401bf5:	5d                   	pop    %rbp
  401bf6:	41 5c                	pop    %r12
  401bf8:	c3                   	retq   

0000000000401bf9 <notify_server>:
  401bf9:	55                   	push   %rbp
  401bfa:	53                   	push   %rbx
  401bfb:	48 81 ec 18 40 00 00 	sub    $0x4018,%rsp
  401c02:	64 48 8b 04 25 28 00 	mov    %fs:0x28,%rax
  401c09:	00 00 
  401c0b:	48 89 84 24 08 40 00 	mov    %rax,0x4008(%rsp)
  401c12:	00 
  401c13:	31 c0                	xor    %eax,%eax
  401c15:	83 3d ec 38 20 00 00 	cmpl   $0x0,0x2038ec(%rip)        # 605508 <is_checker>
  401c1c:	0f 85 d2 00 00 00    	jne    401cf4 <notify_server+0xfb>
  401c22:	89 fb                	mov    %edi,%ebx
  401c24:	8b 05 fa 44 20 00    	mov    0x2044fa(%rip),%eax        # 606124 <gets_cnt>
  401c2a:	83 c0 64             	add    $0x64,%eax
  401c2d:	3d 00 20 00 00       	cmp    $0x2000,%eax
  401c32:	0f 8f dd 00 00 00    	jg     401d15 <notify_server+0x11c>
  401c38:	0f be 05 e9 44 20 00 	movsbl 0x2044e9(%rip),%eax        # 606128 <target_prefix>
  401c3f:	83 3d 42 38 20 00 00 	cmpl   $0x0,0x203842(%rip)        # 605488 <notify>
  401c46:	0f 84 e9 00 00 00    	je     401d35 <notify_server+0x13c>
  401c4c:	8b 15 ae 38 20 00    	mov    0x2038ae(%rip),%edx        # 605500 <authkey>
  401c52:	85 db                	test   %ebx,%ebx
  401c54:	0f 84 e5 00 00 00    	je     401d3f <notify_server+0x146>
  401c5a:	48 8d 2d 70 17 00 00 	lea    0x1770(%rip),%rbp        # 4033d1 <_IO_stdin_used+0x401>
  401c61:	48 89 e7             	mov    %rsp,%rdi
  401c64:	48 8d 0d b5 38 20 00 	lea    0x2038b5(%rip),%rcx        # 605520 <gets_buf>
  401c6b:	51                   	push   %rcx
  401c6c:	56                   	push   %rsi
  401c6d:	50                   	push   %rax
  401c6e:	52                   	push   %rdx
  401c6f:	49 89 e9             	mov    %rbp,%r9
  401c72:	44 8b 05 b7 34 20 00 	mov    0x2034b7(%rip),%r8d        # 605130 <target_id>
  401c79:	48 8d 0d 5b 17 00 00 	lea    0x175b(%rip),%rcx        # 4033db <_IO_stdin_used+0x40b>
  401c80:	ba 00 20 00 00       	mov    $0x2000,%edx
  401c85:	be 01 00 00 00       	mov    $0x1,%esi
  401c8a:	b8 00 00 00 00       	mov    $0x0,%eax
  401c8f:	e8 cc f1 ff ff       	callq  400e60 <__sprintf_chk@plt>
  401c94:	48 83 c4 20          	add    $0x20,%rsp
  401c98:	83 3d e9 37 20 00 00 	cmpl   $0x0,0x2037e9(%rip)        # 605488 <notify>
  401c9f:	0f 84 df 00 00 00    	je     401d84 <notify_server+0x18b>
  401ca5:	85 db                	test   %ebx,%ebx
  401ca7:	0f 84 c6 00 00 00    	je     401d73 <notify_server+0x17a>
  401cad:	48 89 e1             	mov    %rsp,%rcx
  401cb0:	4c 8d 8c 24 00 20 00 	lea    0x2000(%rsp),%r9
  401cb7:	00 
  401cb8:	41 b8 00 00 00 00    	mov    $0x0,%r8d
  401cbe:	48 8b 15 83 34 20 00 	mov    0x203483(%rip),%rdx        # 605148 <lab>
  401cc5:	48 8b 35 84 34 20 00 	mov    0x203484(%rip),%rsi        # 605150 <course>
  401ccc:	48 8b 3d 6d 34 20 00 	mov    0x20346d(%rip),%rdi        # 605140 <user_id>
  401cd3:	e8 af 11 00 00       	callq  402e87 <driver_post>
  401cd8:	85 c0                	test   %eax,%eax
  401cda:	78 6f                	js     401d4b <notify_server+0x152>
  401cdc:	48 8d 3d 3d 18 00 00 	lea    0x183d(%rip),%rdi        # 403520 <_IO_stdin_used+0x550>
  401ce3:	e8 d8 ef ff ff       	callq  400cc0 <puts@plt>
  401ce8:	48 8d 3d 14 17 00 00 	lea    0x1714(%rip),%rdi        # 403403 <_IO_stdin_used+0x433>
  401cef:	e8 cc ef ff ff       	callq  400cc0 <puts@plt>
  401cf4:	48 8b 84 24 08 40 00 	mov    0x4008(%rsp),%rax
  401cfb:	00 
  401cfc:	64 48 33 04 25 28 00 	xor    %fs:0x28,%rax
  401d03:	00 00 
  401d05:	0f 85 07 01 00 00    	jne    401e12 <notify_server+0x219>
  401d0b:	48 81 c4 18 40 00 00 	add    $0x4018,%rsp
  401d12:	5b                   	pop    %rbx
  401d13:	5d                   	pop    %rbp
  401d14:	c3                   	retq   
  401d15:	48 8d 35 d4 17 00 00 	lea    0x17d4(%rip),%rsi        # 4034f0 <_IO_stdin_used+0x520>
  401d1c:	bf 01 00 00 00       	mov    $0x1,%edi
  401d21:	b8 00 00 00 00       	mov    $0x0,%eax
  401d26:	e8 b5 f0 ff ff       	callq  400de0 <__printf_chk@plt>
  401d2b:	bf 01 00 00 00       	mov    $0x1,%edi
  401d30:	e8 fb f0 ff ff       	callq  400e30 <exit@plt>
  401d35:	ba ff ff ff ff       	mov    $0xffffffff,%edx
  401d3a:	e9 13 ff ff ff       	jmpq   401c52 <notify_server+0x59>
  401d3f:	48 8d 2d 90 16 00 00 	lea    0x1690(%rip),%rbp        # 4033d6 <_IO_stdin_used+0x406>
  401d46:	e9 16 ff ff ff       	jmpq   401c61 <notify_server+0x68>
  401d4b:	48 8d 94 24 00 20 00 	lea    0x2000(%rsp),%rdx
  401d52:	00 
  401d53:	48 8d 35 9d 16 00 00 	lea    0x169d(%rip),%rsi        # 4033f7 <_IO_stdin_used+0x427>
  401d5a:	bf 01 00 00 00       	mov    $0x1,%edi
  401d5f:	b8 00 00 00 00       	mov    $0x0,%eax
  401d64:	e8 77 f0 ff ff       	callq  400de0 <__printf_chk@plt>
  401d69:	bf 01 00 00 00       	mov    $0x1,%edi
  401d6e:	e8 bd f0 ff ff       	callq  400e30 <exit@plt>
  401d73:	48 8d 3d 93 16 00 00 	lea    0x1693(%rip),%rdi        # 40340d <_IO_stdin_used+0x43d>
  401d7a:	e8 41 ef ff ff       	callq  400cc0 <puts@plt>
  401d7f:	e9 70 ff ff ff       	jmpq   401cf4 <notify_server+0xfb>
  401d84:	48 89 ea             	mov    %rbp,%rdx
  401d87:	48 8d 35 ca 17 00 00 	lea    0x17ca(%rip),%rsi        # 403558 <_IO_stdin_used+0x588>
  401d8e:	bf 01 00 00 00       	mov    $0x1,%edi
  401d93:	b8 00 00 00 00       	mov    $0x0,%eax
  401d98:	e8 43 f0 ff ff       	callq  400de0 <__printf_chk@plt>
  401d9d:	48 8b 15 9c 33 20 00 	mov    0x20339c(%rip),%rdx        # 605140 <user_id>
  401da4:	48 8d 35 69 16 00 00 	lea    0x1669(%rip),%rsi        # 403414 <_IO_stdin_used+0x444>
  401dab:	bf 01 00 00 00       	mov    $0x1,%edi
  401db0:	b8 00 00 00 00       	mov    $0x0,%eax
  401db5:	e8 26 f0 ff ff       	callq  400de0 <__printf_chk@plt>
  401dba:	48 8b 15 8f 33 20 00 	mov    0x20338f(%rip),%rdx        # 605150 <course>
  401dc1:	48 8d 35 59 16 00 00 	lea    0x1659(%rip),%rsi        # 403421 <_IO_stdin_used+0x451>
  401dc8:	bf 01 00 00 00       	mov    $0x1,%edi
  401dcd:	b8 00 00 00 00       	mov    $0x0,%eax
  401dd2:	e8 09 f0 ff ff       	callq  400de0 <__printf_chk@plt>
  401dd7:	48 8b 15 6a 33 20 00 	mov    0x20336a(%rip),%rdx        # 605148 <lab>
  401dde:	48 8d 35 48 16 00 00 	lea    0x1648(%rip),%rsi        # 40342d <_IO_stdin_used+0x45d>
  401de5:	bf 01 00 00 00       	mov    $0x1,%edi
  401dea:	b8 00 00 00 00       	mov    $0x0,%eax
  401def:	e8 ec ef ff ff       	callq  400de0 <__printf_chk@plt>
  401df4:	48 89 e2             	mov    %rsp,%rdx
  401df7:	48 8d 35 38 16 00 00 	lea    0x1638(%rip),%rsi        # 403436 <_IO_stdin_used+0x466>
  401dfe:	bf 01 00 00 00       	mov    $0x1,%edi
  401e03:	b8 00 00 00 00       	mov    $0x0,%eax
  401e08:	e8 d3 ef ff ff       	callq  400de0 <__printf_chk@plt>
  401e0d:	e9 e2 fe ff ff       	jmpq   401cf4 <notify_server+0xfb>
  401e12:	e8 c9 ee ff ff       	callq  400ce0 <__stack_chk_fail@plt>

0000000000401e17 <validate>:
  401e17:	53                   	push   %rbx
  401e18:	89 fb                	mov    %edi,%ebx
  401e1a:	83 3d e7 36 20 00 00 	cmpl   $0x0,0x2036e7(%rip)        # 605508 <is_checker>
  401e21:	74 72                	je     401e95 <validate+0x7e>
  401e23:	39 3d d3 36 20 00    	cmp    %edi,0x2036d3(%rip)        # 6054fc <vlevel>
  401e29:	75 32                	jne    401e5d <validate+0x46>
  401e2b:	8b 15 c7 36 20 00    	mov    0x2036c7(%rip),%edx        # 6054f8 <check_level>
  401e31:	39 fa                	cmp    %edi,%edx
  401e33:	75 3e                	jne    401e73 <validate+0x5c>
  401e35:	0f be 15 ec 42 20 00 	movsbl 0x2042ec(%rip),%edx        # 606128 <target_prefix>
  401e3c:	4c 8d 05 dd 36 20 00 	lea    0x2036dd(%rip),%r8        # 605520 <gets_buf>
  401e43:	89 f9                	mov    %edi,%ecx
  401e45:	48 8d 35 14 16 00 00 	lea    0x1614(%rip),%rsi        # 403460 <_IO_stdin_used+0x490>
  401e4c:	bf 01 00 00 00       	mov    $0x1,%edi
  401e51:	b8 00 00 00 00       	mov    $0x0,%eax
  401e56:	e8 85 ef ff ff       	callq  400de0 <__printf_chk@plt>
  401e5b:	5b                   	pop    %rbx
  401e5c:	c3                   	retq   
  401e5d:	48 8d 3d de 15 00 00 	lea    0x15de(%rip),%rdi        # 403442 <_IO_stdin_used+0x472>
  401e64:	e8 57 ee ff ff       	callq  400cc0 <puts@plt>
  401e69:	b8 00 00 00 00       	mov    $0x0,%eax
  401e6e:	e8 fc fc ff ff       	callq  401b6f <check_fail>
  401e73:	89 f9                	mov    %edi,%ecx
  401e75:	48 8d 35 04 17 00 00 	lea    0x1704(%rip),%rsi        # 403580 <_IO_stdin_used+0x5b0>
  401e7c:	bf 01 00 00 00       	mov    $0x1,%edi
  401e81:	b8 00 00 00 00       	mov    $0x0,%eax
  401e86:	e8 55 ef ff ff       	callq  400de0 <__printf_chk@plt>
  401e8b:	b8 00 00 00 00       	mov    $0x0,%eax
  401e90:	e8 da fc ff ff       	callq  401b6f <check_fail>
  401e95:	39 3d 61 36 20 00    	cmp    %edi,0x203661(%rip)        # 6054fc <vlevel>
  401e9b:	74 1a                	je     401eb7 <validate+0xa0>
  401e9d:	48 8d 3d 9e 15 00 00 	lea    0x159e(%rip),%rdi        # 403442 <_IO_stdin_used+0x472>
  401ea4:	e8 17 ee ff ff       	callq  400cc0 <puts@plt>
  401ea9:	89 de                	mov    %ebx,%esi
  401eab:	bf 00 00 00 00       	mov    $0x0,%edi
  401eb0:	e8 44 fd ff ff       	callq  401bf9 <notify_server>
  401eb5:	eb a4                	jmp    401e5b <validate+0x44>
  401eb7:	0f be 0d 6a 42 20 00 	movsbl 0x20426a(%rip),%ecx        # 606128 <target_prefix>
  401ebe:	89 fa                	mov    %edi,%edx
  401ec0:	48 8d 35 e1 16 00 00 	lea    0x16e1(%rip),%rsi        # 4035a8 <_IO_stdin_used+0x5d8>
  401ec7:	bf 01 00 00 00       	mov    $0x1,%edi
  401ecc:	b8 00 00 00 00       	mov    $0x0,%eax
  401ed1:	e8 0a ef ff ff       	callq  400de0 <__printf_chk@plt>
  401ed6:	89 de                	mov    %ebx,%esi
  401ed8:	bf 01 00 00 00       	mov    $0x1,%edi
  401edd:	e8 17 fd ff ff       	callq  401bf9 <notify_server>
  401ee2:	e9 74 ff ff ff       	jmpq   401e5b <validate+0x44>

0000000000401ee7 <fail>:
  401ee7:	48 83 ec 08          	sub    $0x8,%rsp
  401eeb:	83 3d 16 36 20 00 00 	cmpl   $0x0,0x203616(%rip)        # 605508 <is_checker>
  401ef2:	75 11                	jne    401f05 <fail+0x1e>
  401ef4:	89 fe                	mov    %edi,%esi
  401ef6:	bf 00 00 00 00       	mov    $0x0,%edi
  401efb:	e8 f9 fc ff ff       	callq  401bf9 <notify_server>
  401f00:	48 83 c4 08          	add    $0x8,%rsp
  401f04:	c3                   	retq   
  401f05:	b8 00 00 00 00       	mov    $0x0,%eax
  401f0a:	e8 60 fc ff ff       	callq  401b6f <check_fail>

0000000000401f0f <bushandler>:
  401f0f:	48 83 ec 08          	sub    $0x8,%rsp
  401f13:	83 3d ee 35 20 00 00 	cmpl   $0x0,0x2035ee(%rip)        # 605508 <is_checker>
  401f1a:	74 16                	je     401f32 <bushandler+0x23>
  401f1c:	48 8d 3d 52 15 00 00 	lea    0x1552(%rip),%rdi        # 403475 <_IO_stdin_used+0x4a5>
  401f23:	e8 98 ed ff ff       	callq  400cc0 <puts@plt>
  401f28:	b8 00 00 00 00       	mov    $0x0,%eax
  401f2d:	e8 3d fc ff ff       	callq  401b6f <check_fail>
  401f32:	48 8d 3d a7 16 00 00 	lea    0x16a7(%rip),%rdi        # 4035e0 <_IO_stdin_used+0x610>
  401f39:	e8 82 ed ff ff       	callq  400cc0 <puts@plt>
  401f3e:	48 8d 3d 3a 15 00 00 	lea    0x153a(%rip),%rdi        # 40347f <_IO_stdin_used+0x4af>
  401f45:	e8 76 ed ff ff       	callq  400cc0 <puts@plt>
  401f4a:	be 00 00 00 00       	mov    $0x0,%esi
  401f4f:	bf 00 00 00 00       	mov    $0x0,%edi
  401f54:	e8 a0 fc ff ff       	callq  401bf9 <notify_server>
  401f59:	bf 01 00 00 00       	mov    $0x1,%edi
  401f5e:	e8 cd ee ff ff       	callq  400e30 <exit@plt>

0000000000401f63 <seghandler>:
  401f63:	48 83 ec 08          	sub    $0x8,%rsp
  401f67:	83 3d 9a 35 20 00 00 	cmpl   $0x0,0x20359a(%rip)        # 605508 <is_checker>
  401f6e:	74 16                	je     401f86 <seghandler+0x23>
  401f70:	48 8d 3d 1e 15 00 00 	lea    0x151e(%rip),%rdi        # 403495 <_IO_stdin_used+0x4c5>
  401f77:	e8 44 ed ff ff       	callq  400cc0 <puts@plt>
  401f7c:	b8 00 00 00 00       	mov    $0x0,%eax
  401f81:	e8 e9 fb ff ff       	callq  401b6f <check_fail>
  401f86:	48 8d 3d 73 16 00 00 	lea    0x1673(%rip),%rdi        # 403600 <_IO_stdin_used+0x630>
  401f8d:	e8 2e ed ff ff       	callq  400cc0 <puts@plt>
  401f92:	48 8d 3d e6 14 00 00 	lea    0x14e6(%rip),%rdi        # 40347f <_IO_stdin_used+0x4af>
  401f99:	e8 22 ed ff ff       	callq  400cc0 <puts@plt>
  401f9e:	be 00 00 00 00       	mov    $0x0,%esi
  401fa3:	bf 00 00 00 00       	mov    $0x0,%edi
  401fa8:	e8 4c fc ff ff       	callq  401bf9 <notify_server>
  401fad:	bf 01 00 00 00       	mov    $0x1,%edi
  401fb2:	e8 79 ee ff ff       	callq  400e30 <exit@plt>

0000000000401fb7 <illegalhandler>:
  401fb7:	48 83 ec 08          	sub    $0x8,%rsp
  401fbb:	83 3d 46 35 20 00 00 	cmpl   $0x0,0x203546(%rip)        # 605508 <is_checker>
  401fc2:	74 16                	je     401fda <illegalhandler+0x23>
  401fc4:	48 8d 3d dd 14 00 00 	lea    0x14dd(%rip),%rdi        # 4034a8 <_IO_stdin_used+0x4d8>
  401fcb:	e8 f0 ec ff ff       	callq  400cc0 <puts@plt>
  401fd0:	b8 00 00 00 00       	mov    $0x0,%eax
  401fd5:	e8 95 fb ff ff       	callq  401b6f <check_fail>
  401fda:	48 8d 3d 47 16 00 00 	lea    0x1647(%rip),%rdi        # 403628 <_IO_stdin_used+0x658>
  401fe1:	e8 da ec ff ff       	callq  400cc0 <puts@plt>
  401fe6:	48 8d 3d 92 14 00 00 	lea    0x1492(%rip),%rdi        # 40347f <_IO_stdin_used+0x4af>
  401fed:	e8 ce ec ff ff       	callq  400cc0 <puts@plt>
  401ff2:	be 00 00 00 00       	mov    $0x0,%esi
  401ff7:	bf 00 00 00 00       	mov    $0x0,%edi
  401ffc:	e8 f8 fb ff ff       	callq  401bf9 <notify_server>
  402001:	bf 01 00 00 00       	mov    $0x1,%edi
  402006:	e8 25 ee ff ff       	callq  400e30 <exit@plt>

000000000040200b <sigalrmhandler>:
  40200b:	48 83 ec 08          	sub    $0x8,%rsp
  40200f:	83 3d f2 34 20 00 00 	cmpl   $0x0,0x2034f2(%rip)        # 605508 <is_checker>
  402016:	74 16                	je     40202e <sigalrmhandler+0x23>
  402018:	48 8d 3d 9d 14 00 00 	lea    0x149d(%rip),%rdi        # 4034bc <_IO_stdin_used+0x4ec>
  40201f:	e8 9c ec ff ff       	callq  400cc0 <puts@plt>
  402024:	b8 00 00 00 00       	mov    $0x0,%eax
  402029:	e8 41 fb ff ff       	callq  401b6f <check_fail>
  40202e:	ba 05 00 00 00       	mov    $0x5,%edx
  402033:	48 8d 35 1e 16 00 00 	lea    0x161e(%rip),%rsi        # 403658 <_IO_stdin_used+0x688>
  40203a:	bf 01 00 00 00       	mov    $0x1,%edi
  40203f:	b8 00 00 00 00       	mov    $0x0,%eax
  402044:	e8 97 ed ff ff       	callq  400de0 <__printf_chk@plt>
  402049:	be 00 00 00 00       	mov    $0x0,%esi
  40204e:	bf 00 00 00 00       	mov    $0x0,%edi
  402053:	e8 a1 fb ff ff       	callq  401bf9 <notify_server>
  402058:	bf 01 00 00 00       	mov    $0x1,%edi
  40205d:	e8 ce ed ff ff       	callq  400e30 <exit@plt>

0000000000402062 <launch>:
  402062:	55                   	push   %rbp
  402063:	48 89 e5             	mov    %rsp,%rbp
  402066:	48 83 ec 10          	sub    $0x10,%rsp
  40206a:	48 89 fa             	mov    %rdi,%rdx
  40206d:	64 48 8b 04 25 28 00 	mov    %fs:0x28,%rax
  402074:	00 00 
  402076:	48 89 45 f8          	mov    %rax,-0x8(%rbp)
  40207a:	31 c0                	xor    %eax,%eax
  40207c:	48 8d 47 1e          	lea    0x1e(%rdi),%rax
  402080:	48 83 e0 f0          	and    $0xfffffffffffffff0,%rax
  402084:	48 29 c4             	sub    %rax,%rsp
  402087:	48 8d 7c 24 0f       	lea    0xf(%rsp),%rdi
  40208c:	48 83 e7 f0          	and    $0xfffffffffffffff0,%rdi
  402090:	be f4 00 00 00       	mov    $0xf4,%esi
  402095:	e8 66 ec ff ff       	callq  400d00 <memset@plt>
  40209a:	48 8b 05 ff 33 20 00 	mov    0x2033ff(%rip),%rax        # 6054a0 <stdin@@GLIBC_2.2.5>
  4020a1:	48 39 05 48 34 20 00 	cmp    %rax,0x203448(%rip)        # 6054f0 <infile>
  4020a8:	74 3a                	je     4020e4 <launch+0x82>
  4020aa:	c7 05 48 34 20 00 00 	movl   $0x0,0x203448(%rip)        # 6054fc <vlevel>
  4020b1:	00 00 00 
  4020b4:	b8 00 00 00 00       	mov    $0x0,%eax
  4020b9:	e8 f6 f8 ff ff       	callq  4019b4 <test>
  4020be:	83 3d 43 34 20 00 00 	cmpl   $0x0,0x203443(%rip)        # 605508 <is_checker>
  4020c5:	75 35                	jne    4020fc <launch+0x9a>
  4020c7:	48 8d 3d 0e 14 00 00 	lea    0x140e(%rip),%rdi        # 4034dc <_IO_stdin_used+0x50c>
  4020ce:	e8 ed eb ff ff       	callq  400cc0 <puts@plt>
  4020d3:	48 8b 45 f8          	mov    -0x8(%rbp),%rax
  4020d7:	64 48 33 04 25 28 00 	xor    %fs:0x28,%rax
  4020de:	00 00 
  4020e0:	75 30                	jne    402112 <launch+0xb0>
  4020e2:	c9                   	leaveq 
  4020e3:	c3                   	retq   
  4020e4:	48 8d 35 d9 13 00 00 	lea    0x13d9(%rip),%rsi        # 4034c4 <_IO_stdin_used+0x4f4>
  4020eb:	bf 01 00 00 00       	mov    $0x1,%edi
  4020f0:	b8 00 00 00 00       	mov    $0x0,%eax
  4020f5:	e8 e6 ec ff ff       	callq  400de0 <__printf_chk@plt>
  4020fa:	eb ae                	jmp    4020aa <launch+0x48>
  4020fc:	48 8d 3d ce 13 00 00 	lea    0x13ce(%rip),%rdi        # 4034d1 <_IO_stdin_used+0x501>
  402103:	e8 b8 eb ff ff       	callq  400cc0 <puts@plt>
  402108:	b8 00 00 00 00       	mov    $0x0,%eax
  40210d:	e8 5d fa ff ff       	callq  401b6f <check_fail>
  402112:	e8 c9 eb ff ff       	callq  400ce0 <__stack_chk_fail@plt>

0000000000402117 <stable_launch>:
  402117:	53                   	push   %rbx
  402118:	48 89 3d c9 33 20 00 	mov    %rdi,0x2033c9(%rip)        # 6054e8 <global_offset>
  40211f:	41 b9 00 00 00 00    	mov    $0x0,%r9d
  402125:	41 b8 00 00 00 00    	mov    $0x0,%r8d
  40212b:	b9 32 01 00 00       	mov    $0x132,%ecx
  402130:	ba 07 00 00 00       	mov    $0x7,%edx
  402135:	be 00 00 10 00       	mov    $0x100000,%esi
  40213a:	bf 00 60 58 55       	mov    $0x55586000,%edi
  40213f:	e8 ac eb ff ff       	callq  400cf0 <mmap@plt>
  402144:	48 89 c3             	mov    %rax,%rbx
  402147:	48 3d 00 60 58 55    	cmp    $0x55586000,%rax
  40214d:	75 43                	jne    402192 <stable_launch+0x7b>
  40214f:	48 8d 90 f8 ff 0f 00 	lea    0xffff8(%rax),%rdx
  402156:	48 89 15 d3 3f 20 00 	mov    %rdx,0x203fd3(%rip)        # 606130 <stack_top>
  40215d:	48 89 e0             	mov    %rsp,%rax
  402160:	48 89 d4             	mov    %rdx,%rsp
  402163:	48 89 c2             	mov    %rax,%rdx
  402166:	48 89 15 73 33 20 00 	mov    %rdx,0x203373(%rip)        # 6054e0 <global_save_stack>
  40216d:	48 8b 3d 74 33 20 00 	mov    0x203374(%rip),%rdi        # 6054e8 <global_offset>
  402174:	e8 e9 fe ff ff       	callq  402062 <launch>
  402179:	48 8b 05 60 33 20 00 	mov    0x203360(%rip),%rax        # 6054e0 <global_save_stack>
  402180:	48 89 c4             	mov    %rax,%rsp
  402183:	be 00 00 10 00       	mov    $0x100000,%esi
  402188:	48 89 df             	mov    %rbx,%rdi
  40218b:	e8 40 ec ff ff       	callq  400dd0 <munmap@plt>
  402190:	5b                   	pop    %rbx
  402191:	c3                   	retq   
  402192:	be 00 00 10 00       	mov    $0x100000,%esi
  402197:	48 89 c7             	mov    %rax,%rdi
  40219a:	e8 31 ec ff ff       	callq  400dd0 <munmap@plt>
  40219f:	b9 00 60 58 55       	mov    $0x55586000,%ecx
  4021a4:	48 8d 15 e5 14 00 00 	lea    0x14e5(%rip),%rdx        # 403690 <_IO_stdin_used+0x6c0>
  4021ab:	be 01 00 00 00       	mov    $0x1,%esi
  4021b0:	48 8b 3d 09 33 20 00 	mov    0x203309(%rip),%rdi        # 6054c0 <stderr@@GLIBC_2.2.5>
  4021b7:	b8 00 00 00 00       	mov    $0x0,%eax
  4021bc:	e8 8f ec ff ff       	callq  400e50 <__fprintf_chk@plt>
  4021c1:	bf 01 00 00 00       	mov    $0x1,%edi
  4021c6:	e8 65 ec ff ff       	callq  400e30 <exit@plt>

00000000004021cb <rio_readinitb>:
  4021cb:	89 37                	mov    %esi,(%rdi)
  4021cd:	c7 47 04 00 00 00 00 	movl   $0x0,0x4(%rdi)
  4021d4:	48 8d 47 10          	lea    0x10(%rdi),%rax
  4021d8:	48 89 47 08          	mov    %rax,0x8(%rdi)
  4021dc:	c3                   	retq   

00000000004021dd <sigalrm_handler>:
  4021dd:	48 83 ec 08          	sub    $0x8,%rsp
  4021e1:	b9 00 00 00 00       	mov    $0x0,%ecx
  4021e6:	48 8d 15 e3 14 00 00 	lea    0x14e3(%rip),%rdx        # 4036d0 <trans_char+0x10>
  4021ed:	be 01 00 00 00       	mov    $0x1,%esi
  4021f2:	48 8b 3d c7 32 20 00 	mov    0x2032c7(%rip),%rdi        # 6054c0 <stderr@@GLIBC_2.2.5>
  4021f9:	b8 00 00 00 00       	mov    $0x0,%eax
  4021fe:	e8 4d ec ff ff       	callq  400e50 <__fprintf_chk@plt>
  402203:	bf 01 00 00 00       	mov    $0x1,%edi
  402208:	e8 23 ec ff ff       	callq  400e30 <exit@plt>

000000000040220d <rio_writen>:
  40220d:	41 55                	push   %r13
  40220f:	41 54                	push   %r12
  402211:	55                   	push   %rbp
  402212:	53                   	push   %rbx
  402213:	48 83 ec 08          	sub    $0x8,%rsp
  402217:	41 89 fc             	mov    %edi,%r12d
  40221a:	48 89 f5             	mov    %rsi,%rbp
  40221d:	49 89 d5             	mov    %rdx,%r13
  402220:	48 89 d3             	mov    %rdx,%rbx
  402223:	eb 06                	jmp    40222b <rio_writen+0x1e>
  402225:	48 29 c3             	sub    %rax,%rbx
  402228:	48 01 c5             	add    %rax,%rbp
  40222b:	48 85 db             	test   %rbx,%rbx
  40222e:	74 24                	je     402254 <rio_writen+0x47>
  402230:	48 89 da             	mov    %rbx,%rdx
  402233:	48 89 ee             	mov    %rbp,%rsi
  402236:	44 89 e7             	mov    %r12d,%edi
  402239:	e8 92 ea ff ff       	callq  400cd0 <write@plt>
  40223e:	48 85 c0             	test   %rax,%rax
  402241:	7f e2                	jg     402225 <rio_writen+0x18>
  402243:	e8 38 ea ff ff       	callq  400c80 <__errno_location@plt>
  402248:	83 38 04             	cmpl   $0x4,(%rax)
  40224b:	75 15                	jne    402262 <rio_writen+0x55>
  40224d:	b8 00 00 00 00       	mov    $0x0,%eax
  402252:	eb d1                	jmp    402225 <rio_writen+0x18>
  402254:	4c 89 e8             	mov    %r13,%rax
  402257:	48 83 c4 08          	add    $0x8,%rsp
  40225b:	5b                   	pop    %rbx
  40225c:	5d                   	pop    %rbp
  40225d:	41 5c                	pop    %r12
  40225f:	41 5d                	pop    %r13
  402261:	c3                   	retq   
  402262:	48 c7 c0 ff ff ff ff 	mov    $0xffffffffffffffff,%rax
  402269:	eb ec                	jmp    402257 <rio_writen+0x4a>

000000000040226b <rio_read>:
  40226b:	41 55                	push   %r13
  40226d:	41 54                	push   %r12
  40226f:	55                   	push   %rbp
  402270:	53                   	push   %rbx
  402271:	48 83 ec 08          	sub    $0x8,%rsp
  402275:	48 89 fb             	mov    %rdi,%rbx
  402278:	49 89 f5             	mov    %rsi,%r13
  40227b:	49 89 d4             	mov    %rdx,%r12
  40227e:	eb 0a                	jmp    40228a <rio_read+0x1f>
  402280:	e8 fb e9 ff ff       	callq  400c80 <__errno_location@plt>
  402285:	83 38 04             	cmpl   $0x4,(%rax)
  402288:	75 5c                	jne    4022e6 <rio_read+0x7b>
  40228a:	8b 6b 04             	mov    0x4(%rbx),%ebp
  40228d:	85 ed                	test   %ebp,%ebp
  40228f:	7f 24                	jg     4022b5 <rio_read+0x4a>
  402291:	48 8d 6b 10          	lea    0x10(%rbx),%rbp
  402295:	8b 3b                	mov    (%rbx),%edi
  402297:	ba 00 20 00 00       	mov    $0x2000,%edx
  40229c:	48 89 ee             	mov    %rbp,%rsi
  40229f:	e8 8c ea ff ff       	callq  400d30 <read@plt>
  4022a4:	89 43 04             	mov    %eax,0x4(%rbx)
  4022a7:	85 c0                	test   %eax,%eax
  4022a9:	78 d5                	js     402280 <rio_read+0x15>
  4022ab:	85 c0                	test   %eax,%eax
  4022ad:	74 40                	je     4022ef <rio_read+0x84>
  4022af:	48 89 6b 08          	mov    %rbp,0x8(%rbx)
  4022b3:	eb d5                	jmp    40228a <rio_read+0x1f>
  4022b5:	89 e8                	mov    %ebp,%eax
  4022b7:	4c 39 e0             	cmp    %r12,%rax
  4022ba:	72 03                	jb     4022bf <rio_read+0x54>
  4022bc:	44 89 e5             	mov    %r12d,%ebp
  4022bf:	4c 63 e5             	movslq %ebp,%r12
  4022c2:	48 8b 73 08          	mov    0x8(%rbx),%rsi
  4022c6:	4c 89 e2             	mov    %r12,%rdx
  4022c9:	4c 89 ef             	mov    %r13,%rdi
  4022cc:	e8 af ea ff ff       	callq  400d80 <memcpy@plt>
  4022d1:	4c 01 63 08          	add    %r12,0x8(%rbx)
  4022d5:	29 6b 04             	sub    %ebp,0x4(%rbx)
  4022d8:	4c 89 e0             	mov    %r12,%rax
  4022db:	48 83 c4 08          	add    $0x8,%rsp
  4022df:	5b                   	pop    %rbx
  4022e0:	5d                   	pop    %rbp
  4022e1:	41 5c                	pop    %r12
  4022e3:	41 5d                	pop    %r13
  4022e5:	c3                   	retq   
  4022e6:	48 c7 c0 ff ff ff ff 	mov    $0xffffffffffffffff,%rax
  4022ed:	eb ec                	jmp    4022db <rio_read+0x70>
  4022ef:	b8 00 00 00 00       	mov    $0x0,%eax
  4022f4:	eb e5                	jmp    4022db <rio_read+0x70>

00000000004022f6 <rio_readlineb>:
  4022f6:	41 55                	push   %r13
  4022f8:	41 54                	push   %r12
  4022fa:	55                   	push   %rbp
  4022fb:	53                   	push   %rbx
  4022fc:	48 83 ec 18          	sub    $0x18,%rsp
  402300:	49 89 fd             	mov    %rdi,%r13
  402303:	48 89 f5             	mov    %rsi,%rbp
  402306:	49 89 d4             	mov    %rdx,%r12
  402309:	64 48 8b 04 25 28 00 	mov    %fs:0x28,%rax
  402310:	00 00 
  402312:	48 89 44 24 08       	mov    %rax,0x8(%rsp)
  402317:	31 c0                	xor    %eax,%eax
  402319:	bb 01 00 00 00       	mov    $0x1,%ebx
  40231e:	4c 39 e3             	cmp    %r12,%rbx
  402321:	73 47                	jae    40236a <rio_readlineb+0x74>
  402323:	48 8d 74 24 07       	lea    0x7(%rsp),%rsi
  402328:	ba 01 00 00 00       	mov    $0x1,%edx
  40232d:	4c 89 ef             	mov    %r13,%rdi
  402330:	e8 36 ff ff ff       	callq  40226b <rio_read>
  402335:	83 f8 01             	cmp    $0x1,%eax
  402338:	75 1c                	jne    402356 <rio_readlineb+0x60>
  40233a:	48 8d 45 01          	lea    0x1(%rbp),%rax
  40233e:	0f b6 54 24 07       	movzbl 0x7(%rsp),%edx
  402343:	88 55 00             	mov    %dl,0x0(%rbp)
  402346:	80 7c 24 07 0a       	cmpb   $0xa,0x7(%rsp)
  40234b:	74 1a                	je     402367 <rio_readlineb+0x71>
  40234d:	48 83 c3 01          	add    $0x1,%rbx
  402351:	48 89 c5             	mov    %rax,%rbp
  402354:	eb c8                	jmp    40231e <rio_readlineb+0x28>
  402356:	85 c0                	test   %eax,%eax
  402358:	75 32                	jne    40238c <rio_readlineb+0x96>
  40235a:	48 83 fb 01          	cmp    $0x1,%rbx
  40235e:	75 0a                	jne    40236a <rio_readlineb+0x74>
  402360:	b8 00 00 00 00       	mov    $0x0,%eax
  402365:	eb 0a                	jmp    402371 <rio_readlineb+0x7b>
  402367:	48 89 c5             	mov    %rax,%rbp
  40236a:	c6 45 00 00          	movb   $0x0,0x0(%rbp)
  40236e:	48 89 d8             	mov    %rbx,%rax
  402371:	48 8b 4c 24 08       	mov    0x8(%rsp),%rcx
  402376:	64 48 33 0c 25 28 00 	xor    %fs:0x28,%rcx
  40237d:	00 00 
  40237f:	75 14                	jne    402395 <rio_readlineb+0x9f>
  402381:	48 83 c4 18          	add    $0x18,%rsp
  402385:	5b                   	pop    %rbx
  402386:	5d                   	pop    %rbp
  402387:	41 5c                	pop    %r12
  402389:	41 5d                	pop    %r13
  40238b:	c3                   	retq   
  40238c:	48 c7 c0 ff ff ff ff 	mov    $0xffffffffffffffff,%rax
  402393:	eb dc                	jmp    402371 <rio_readlineb+0x7b>
  402395:	e8 46 e9 ff ff       	callq  400ce0 <__stack_chk_fail@plt>

000000000040239a <urlencode>:
  40239a:	41 54                	push   %r12
  40239c:	55                   	push   %rbp
  40239d:	53                   	push   %rbx
  40239e:	48 83 ec 10          	sub    $0x10,%rsp
  4023a2:	48 89 fb             	mov    %rdi,%rbx
  4023a5:	48 89 f5             	mov    %rsi,%rbp
  4023a8:	64 48 8b 04 25 28 00 	mov    %fs:0x28,%rax
  4023af:	00 00 
  4023b1:	48 89 44 24 08       	mov    %rax,0x8(%rsp)
  4023b6:	31 c0                	xor    %eax,%eax
  4023b8:	48 c7 c1 ff ff ff ff 	mov    $0xffffffffffffffff,%rcx
  4023bf:	f2 ae                	repnz scas %es:(%rdi),%al
  4023c1:	48 89 ce             	mov    %rcx,%rsi
  4023c4:	48 f7 d6             	not    %rsi
  4023c7:	8d 46 ff             	lea    -0x1(%rsi),%eax
  4023ca:	eb 0f                	jmp    4023db <urlencode+0x41>
  4023cc:	44 88 45 00          	mov    %r8b,0x0(%rbp)
  4023d0:	48 8d 6d 01          	lea    0x1(%rbp),%rbp
  4023d4:	48 83 c3 01          	add    $0x1,%rbx
  4023d8:	44 89 e0             	mov    %r12d,%eax
  4023db:	44 8d 60 ff          	lea    -0x1(%rax),%r12d
  4023df:	85 c0                	test   %eax,%eax
  4023e1:	0f 84 a8 00 00 00    	je     40248f <urlencode+0xf5>
  4023e7:	44 0f b6 03          	movzbl (%rbx),%r8d
  4023eb:	41 80 f8 2a          	cmp    $0x2a,%r8b
  4023ef:	0f 94 c2             	sete   %dl
  4023f2:	41 80 f8 2d          	cmp    $0x2d,%r8b
  4023f6:	0f 94 c0             	sete   %al
  4023f9:	08 c2                	or     %al,%dl
  4023fb:	75 cf                	jne    4023cc <urlencode+0x32>
  4023fd:	41 80 f8 2e          	cmp    $0x2e,%r8b
  402401:	74 c9                	je     4023cc <urlencode+0x32>
  402403:	41 80 f8 5f          	cmp    $0x5f,%r8b
  402407:	74 c3                	je     4023cc <urlencode+0x32>
  402409:	41 8d 40 d0          	lea    -0x30(%r8),%eax
  40240d:	3c 09                	cmp    $0x9,%al
  40240f:	76 bb                	jbe    4023cc <urlencode+0x32>
  402411:	41 8d 40 bf          	lea    -0x41(%r8),%eax
  402415:	3c 19                	cmp    $0x19,%al
  402417:	76 b3                	jbe    4023cc <urlencode+0x32>
  402419:	41 8d 40 9f          	lea    -0x61(%r8),%eax
  40241d:	3c 19                	cmp    $0x19,%al
  40241f:	76 ab                	jbe    4023cc <urlencode+0x32>
  402421:	41 80 f8 20          	cmp    $0x20,%r8b
  402425:	74 56                	je     40247d <urlencode+0xe3>
  402427:	41 8d 40 e0          	lea    -0x20(%r8),%eax
  40242b:	3c 5f                	cmp    $0x5f,%al
  40242d:	0f 96 c2             	setbe  %dl
  402430:	41 80 f8 09          	cmp    $0x9,%r8b
  402434:	0f 94 c0             	sete   %al
  402437:	08 c2                	or     %al,%dl
  402439:	74 4f                	je     40248a <urlencode+0xf0>
  40243b:	48 89 e7             	mov    %rsp,%rdi
  40243e:	45 0f b6 c0          	movzbl %r8b,%r8d
  402442:	48 8d 0d 1f 13 00 00 	lea    0x131f(%rip),%rcx        # 403768 <trans_char+0xa8>
  402449:	ba 08 00 00 00       	mov    $0x8,%edx
  40244e:	be 01 00 00 00       	mov    $0x1,%esi
  402453:	b8 00 00 00 00       	mov    $0x0,%eax
  402458:	e8 03 ea ff ff       	callq  400e60 <__sprintf_chk@plt>
  40245d:	0f b6 04 24          	movzbl (%rsp),%eax
  402461:	88 45 00             	mov    %al,0x0(%rbp)
  402464:	0f b6 44 24 01       	movzbl 0x1(%rsp),%eax
  402469:	88 45 01             	mov    %al,0x1(%rbp)
  40246c:	0f b6 44 24 02       	movzbl 0x2(%rsp),%eax
  402471:	88 45 02             	mov    %al,0x2(%rbp)
  402474:	48 8d 6d 03          	lea    0x3(%rbp),%rbp
  402478:	e9 57 ff ff ff       	jmpq   4023d4 <urlencode+0x3a>
  40247d:	c6 45 00 2b          	movb   $0x2b,0x0(%rbp)
  402481:	48 8d 6d 01          	lea    0x1(%rbp),%rbp
  402485:	e9 4a ff ff ff       	jmpq   4023d4 <urlencode+0x3a>
  40248a:	b8 ff ff ff ff       	mov    $0xffffffff,%eax
  40248f:	48 8b 74 24 08       	mov    0x8(%rsp),%rsi
  402494:	64 48 33 34 25 28 00 	xor    %fs:0x28,%rsi
  40249b:	00 00 
  40249d:	75 09                	jne    4024a8 <urlencode+0x10e>
  40249f:	48 83 c4 10          	add    $0x10,%rsp
  4024a3:	5b                   	pop    %rbx
  4024a4:	5d                   	pop    %rbp
  4024a5:	41 5c                	pop    %r12
  4024a7:	c3                   	retq   
  4024a8:	e8 33 e8 ff ff       	callq  400ce0 <__stack_chk_fail@plt>

00000000004024ad <submitr>:
  4024ad:	41 57                	push   %r15
  4024af:	41 56                	push   %r14
  4024b1:	41 55                	push   %r13
  4024b3:	41 54                	push   %r12
  4024b5:	55                   	push   %rbp
  4024b6:	53                   	push   %rbx
  4024b7:	48 81 ec 68 a0 00 00 	sub    $0xa068,%rsp
  4024be:	49 89 fd             	mov    %rdi,%r13
  4024c1:	89 74 24 14          	mov    %esi,0x14(%rsp)
  4024c5:	49 89 d7             	mov    %rdx,%r15
  4024c8:	48 89 4c 24 08       	mov    %rcx,0x8(%rsp)
  4024cd:	4c 89 44 24 18       	mov    %r8,0x18(%rsp)
  4024d2:	4d 89 ce             	mov    %r9,%r14
  4024d5:	48 8b ac 24 a0 a0 00 	mov    0xa0a0(%rsp),%rbp
  4024dc:	00 
  4024dd:	64 48 8b 04 25 28 00 	mov    %fs:0x28,%rax
  4024e4:	00 00 
  4024e6:	48 89 84 24 58 a0 00 	mov    %rax,0xa058(%rsp)
  4024ed:	00 
  4024ee:	31 c0                	xor    %eax,%eax
  4024f0:	c7 44 24 2c 00 00 00 	movl   $0x0,0x2c(%rsp)
  4024f7:	00 
  4024f8:	ba 00 00 00 00       	mov    $0x0,%edx
  4024fd:	be 01 00 00 00       	mov    $0x1,%esi
  402502:	bf 02 00 00 00       	mov    $0x2,%edi
  402507:	e8 64 e9 ff ff       	callq  400e70 <socket@plt>
  40250c:	85 c0                	test   %eax,%eax
  40250e:	0f 88 a9 02 00 00    	js     4027bd <submitr+0x310>
  402514:	89 c3                	mov    %eax,%ebx
  402516:	4c 89 ef             	mov    %r13,%rdi
  402519:	e8 32 e8 ff ff       	callq  400d50 <gethostbyname@plt>
  40251e:	48 85 c0             	test   %rax,%rax
  402521:	0f 84 e2 02 00 00    	je     402809 <submitr+0x35c>
  402527:	4c 8d 64 24 30       	lea    0x30(%rsp),%r12
  40252c:	48 c7 44 24 32 00 00 	movq   $0x0,0x32(%rsp)
  402533:	00 00 
  402535:	c7 44 24 3a 00 00 00 	movl   $0x0,0x3a(%rsp)
  40253c:	00 
  40253d:	66 c7 44 24 3e 00 00 	movw   $0x0,0x3e(%rsp)
  402544:	66 c7 44 24 30 02 00 	movw   $0x2,0x30(%rsp)
  40254b:	48 63 50 14          	movslq 0x14(%rax),%rdx
  40254f:	48 8b 40 18          	mov    0x18(%rax),%rax
  402553:	48 8b 30             	mov    (%rax),%rsi
  402556:	48 8d 7c 24 34       	lea    0x34(%rsp),%rdi
  40255b:	b9 0c 00 00 00       	mov    $0xc,%ecx
  402560:	e8 fb e7 ff ff       	callq  400d60 <__memmove_chk@plt>
  402565:	0f b7 44 24 14       	movzwl 0x14(%rsp),%eax
  40256a:	66 c1 c8 08          	ror    $0x8,%ax
  40256e:	66 89 44 24 32       	mov    %ax,0x32(%rsp)
  402573:	ba 10 00 00 00       	mov    $0x10,%edx
  402578:	4c 89 e6             	mov    %r12,%rsi
  40257b:	89 df                	mov    %ebx,%edi
  40257d:	e8 be e8 ff ff       	callq  400e40 <connect@plt>
  402582:	85 c0                	test   %eax,%eax
  402584:	0f 88 e7 02 00 00    	js     402871 <submitr+0x3c4>
  40258a:	48 c7 c6 ff ff ff ff 	mov    $0xffffffffffffffff,%rsi
  402591:	b8 00 00 00 00       	mov    $0x0,%eax
  402596:	48 89 f1             	mov    %rsi,%rcx
  402599:	4c 89 f7             	mov    %r14,%rdi
  40259c:	f2 ae                	repnz scas %es:(%rdi),%al
  40259e:	48 89 ca             	mov    %rcx,%rdx
  4025a1:	48 f7 d2             	not    %rdx
  4025a4:	48 89 f1             	mov    %rsi,%rcx
  4025a7:	4c 89 ff             	mov    %r15,%rdi
  4025aa:	f2 ae                	repnz scas %es:(%rdi),%al
  4025ac:	48 f7 d1             	not    %rcx
  4025af:	49 89 c8             	mov    %rcx,%r8
  4025b2:	48 89 f1             	mov    %rsi,%rcx
  4025b5:	48 8b 7c 24 08       	mov    0x8(%rsp),%rdi
  4025ba:	f2 ae                	repnz scas %es:(%rdi),%al
  4025bc:	48 f7 d1             	not    %rcx
  4025bf:	4d 8d 44 08 fe       	lea    -0x2(%r8,%rcx,1),%r8
  4025c4:	48 89 f1             	mov    %rsi,%rcx
  4025c7:	48 8b 7c 24 18       	mov    0x18(%rsp),%rdi
  4025cc:	f2 ae                	repnz scas %es:(%rdi),%al
  4025ce:	48 89 c8             	mov    %rcx,%rax
  4025d1:	48 f7 d0             	not    %rax
  4025d4:	49 8d 4c 00 ff       	lea    -0x1(%r8,%rax,1),%rcx
  4025d9:	48 8d 44 52 fd       	lea    -0x3(%rdx,%rdx,2),%rax
  4025de:	48 8d 84 01 80 00 00 	lea    0x80(%rcx,%rax,1),%rax
  4025e5:	00 
  4025e6:	48 3d 00 20 00 00    	cmp    $0x2000,%rax
  4025ec:	0f 87 d9 02 00 00    	ja     4028cb <submitr+0x41e>
  4025f2:	48 8d b4 24 50 40 00 	lea    0x4050(%rsp),%rsi
  4025f9:	00 
  4025fa:	b9 00 04 00 00       	mov    $0x400,%ecx
  4025ff:	b8 00 00 00 00       	mov    $0x0,%eax
  402604:	48 89 f7             	mov    %rsi,%rdi
  402607:	f3 48 ab             	rep stos %rax,%es:(%rdi)
  40260a:	4c 89 f7             	mov    %r14,%rdi
  40260d:	e8 88 fd ff ff       	callq  40239a <urlencode>
  402612:	85 c0                	test   %eax,%eax
  402614:	0f 88 24 03 00 00    	js     40293e <submitr+0x491>
  40261a:	4c 8d a4 24 50 20 00 	lea    0x2050(%rsp),%r12
  402621:	00 
  402622:	41 55                	push   %r13
  402624:	48 8d 84 24 58 40 00 	lea    0x4058(%rsp),%rax
  40262b:	00 
  40262c:	50                   	push   %rax
  40262d:	4d 89 f9             	mov    %r15,%r9
  402630:	4c 8b 44 24 18       	mov    0x18(%rsp),%r8
  402635:	48 8d 0d bc 10 00 00 	lea    0x10bc(%rip),%rcx        # 4036f8 <trans_char+0x38>
  40263c:	ba 00 20 00 00       	mov    $0x2000,%edx
  402641:	be 01 00 00 00       	mov    $0x1,%esi
  402646:	4c 89 e7             	mov    %r12,%rdi
  402649:	b8 00 00 00 00       	mov    $0x0,%eax
  40264e:	e8 0d e8 ff ff       	callq  400e60 <__sprintf_chk@plt>
  402653:	48 c7 c1 ff ff ff ff 	mov    $0xffffffffffffffff,%rcx
  40265a:	b8 00 00 00 00       	mov    $0x0,%eax
  40265f:	4c 89 e7             	mov    %r12,%rdi
  402662:	f2 ae                	repnz scas %es:(%rdi),%al
  402664:	48 89 ca             	mov    %rcx,%rdx
  402667:	48 f7 d2             	not    %rdx
  40266a:	48 8d 52 ff          	lea    -0x1(%rdx),%rdx
  40266e:	4c 89 e6             	mov    %r12,%rsi
  402671:	89 df                	mov    %ebx,%edi
  402673:	e8 95 fb ff ff       	callq  40220d <rio_writen>
  402678:	48 83 c4 10          	add    $0x10,%rsp
  40267c:	48 85 c0             	test   %rax,%rax
  40267f:	0f 88 44 03 00 00    	js     4029c9 <submitr+0x51c>
  402685:	4c 8d 64 24 40       	lea    0x40(%rsp),%r12
  40268a:	89 de                	mov    %ebx,%esi
  40268c:	4c 89 e7             	mov    %r12,%rdi
  40268f:	e8 37 fb ff ff       	callq  4021cb <rio_readinitb>
  402694:	48 8d b4 24 50 20 00 	lea    0x2050(%rsp),%rsi
  40269b:	00 
  40269c:	ba 00 20 00 00       	mov    $0x2000,%edx
  4026a1:	4c 89 e7             	mov    %r12,%rdi
  4026a4:	e8 4d fc ff ff       	callq  4022f6 <rio_readlineb>
  4026a9:	48 85 c0             	test   %rax,%rax
  4026ac:	0f 8e 86 03 00 00    	jle    402a38 <submitr+0x58b>
  4026b2:	48 8d 4c 24 2c       	lea    0x2c(%rsp),%rcx
  4026b7:	48 8d 94 24 50 60 00 	lea    0x6050(%rsp),%rdx
  4026be:	00 
  4026bf:	48 8d bc 24 50 20 00 	lea    0x2050(%rsp),%rdi
  4026c6:	00 
  4026c7:	4c 8d 84 24 50 80 00 	lea    0x8050(%rsp),%r8
  4026ce:	00 
  4026cf:	48 8d 35 99 10 00 00 	lea    0x1099(%rip),%rsi        # 40376f <trans_char+0xaf>
  4026d6:	b8 00 00 00 00       	mov    $0x0,%eax
  4026db:	e8 e0 e6 ff ff       	callq  400dc0 <__isoc99_sscanf@plt>
  4026e0:	48 8d b4 24 50 20 00 	lea    0x2050(%rsp),%rsi
  4026e7:	00 
  4026e8:	b9 03 00 00 00       	mov    $0x3,%ecx
  4026ed:	48 8d 3d 92 10 00 00 	lea    0x1092(%rip),%rdi        # 403786 <trans_char+0xc6>
  4026f4:	f3 a6                	repz cmpsb %es:(%rdi),%ds:(%rsi)
  4026f6:	0f 97 c0             	seta   %al
  4026f9:	1c 00                	sbb    $0x0,%al
  4026fb:	84 c0                	test   %al,%al
  4026fd:	0f 84 b3 03 00 00    	je     402ab6 <submitr+0x609>
  402703:	48 8d b4 24 50 20 00 	lea    0x2050(%rsp),%rsi
  40270a:	00 
  40270b:	48 8d 7c 24 40       	lea    0x40(%rsp),%rdi
  402710:	ba 00 20 00 00       	mov    $0x2000,%edx
  402715:	e8 dc fb ff ff       	callq  4022f6 <rio_readlineb>
  40271a:	48 85 c0             	test   %rax,%rax
  40271d:	7f c1                	jg     4026e0 <submitr+0x233>
  40271f:	48 b8 45 72 72 6f 72 	movabs $0x43203a726f727245,%rax
  402726:	3a 20 43 
  402729:	48 ba 6c 69 65 6e 74 	movabs $0x6e7520746e65696c,%rdx
  402730:	20 75 6e 
  402733:	48 89 45 00          	mov    %rax,0x0(%rbp)
  402737:	48 89 55 08          	mov    %rdx,0x8(%rbp)
  40273b:	48 b8 61 62 6c 65 20 	movabs $0x206f7420656c6261,%rax
  402742:	74 6f 20 
  402745:	48 ba 72 65 61 64 20 	movabs $0x6165682064616572,%rdx
  40274c:	68 65 61 
  40274f:	48 89 45 10          	mov    %rax,0x10(%rbp)
  402753:	48 89 55 18          	mov    %rdx,0x18(%rbp)
  402757:	48 b8 64 65 72 73 20 	movabs $0x6f72662073726564,%rax
  40275e:	66 72 6f 
  402761:	48 ba 6d 20 74 68 65 	movabs $0x657220656874206d,%rdx
  402768:	20 72 65 
  40276b:	48 89 45 20          	mov    %rax,0x20(%rbp)
  40276f:	48 89 55 28          	mov    %rdx,0x28(%rbp)
  402773:	48 b8 73 75 6c 74 20 	movabs $0x72657320746c7573,%rax
  40277a:	73 65 72 
  40277d:	48 89 45 30          	mov    %rax,0x30(%rbp)
  402781:	c7 45 38 76 65 72 00 	movl   $0x726576,0x38(%rbp)
  402788:	89 df                	mov    %ebx,%edi
  40278a:	e8 91 e5 ff ff       	callq  400d20 <close@plt>
  40278f:	b8 ff ff ff ff       	mov    $0xffffffff,%eax
  402794:	48 8b 9c 24 58 a0 00 	mov    0xa058(%rsp),%rbx
  40279b:	00 
  40279c:	64 48 33 1c 25 28 00 	xor    %fs:0x28,%rbx
  4027a3:	00 00 
  4027a5:	0f 85 7e 04 00 00    	jne    402c29 <submitr+0x77c>
  4027ab:	48 81 c4 68 a0 00 00 	add    $0xa068,%rsp
  4027b2:	5b                   	pop    %rbx
  4027b3:	5d                   	pop    %rbp
  4027b4:	41 5c                	pop    %r12
  4027b6:	41 5d                	pop    %r13
  4027b8:	41 5e                	pop    %r14
  4027ba:	41 5f                	pop    %r15
  4027bc:	c3                   	retq   
  4027bd:	48 b8 45 72 72 6f 72 	movabs $0x43203a726f727245,%rax
  4027c4:	3a 20 43 
  4027c7:	48 ba 6c 69 65 6e 74 	movabs $0x6e7520746e65696c,%rdx
  4027ce:	20 75 6e 
  4027d1:	48 89 45 00          	mov    %rax,0x0(%rbp)
  4027d5:	48 89 55 08          	mov    %rdx,0x8(%rbp)
  4027d9:	48 b8 61 62 6c 65 20 	movabs $0x206f7420656c6261,%rax
  4027e0:	74 6f 20 
  4027e3:	48 ba 63 72 65 61 74 	movabs $0x7320657461657263,%rdx
  4027ea:	65 20 73 
  4027ed:	48 89 45 10          	mov    %rax,0x10(%rbp)
  4027f1:	48 89 55 18          	mov    %rdx,0x18(%rbp)
  4027f5:	c7 45 20 6f 63 6b 65 	movl   $0x656b636f,0x20(%rbp)
  4027fc:	66 c7 45 24 74 00    	movw   $0x74,0x24(%rbp)
  402802:	b8 ff ff ff ff       	mov    $0xffffffff,%eax
  402807:	eb 8b                	jmp    402794 <submitr+0x2e7>
  402809:	48 b8 45 72 72 6f 72 	movabs $0x44203a726f727245,%rax
  402810:	3a 20 44 
  402813:	48 ba 4e 53 20 69 73 	movabs $0x6e7520736920534e,%rdx
  40281a:	20 75 6e 
  40281d:	48 89 45 00          	mov    %rax,0x0(%rbp)
  402821:	48 89 55 08          	mov    %rdx,0x8(%rbp)
  402825:	48 b8 61 62 6c 65 20 	movabs $0x206f7420656c6261,%rax
  40282c:	74 6f 20 
  40282f:	48 ba 72 65 73 6f 6c 	movabs $0x2065766c6f736572,%rdx
  402836:	76 65 20 
  402839:	48 89 45 10          	mov    %rax,0x10(%rbp)
  40283d:	48 89 55 18          	mov    %rdx,0x18(%rbp)
  402841:	48 b8 73 65 72 76 65 	movabs $0x6120726576726573,%rax
  402848:	72 20 61 
  40284b:	48 89 45 20          	mov    %rax,0x20(%rbp)
  40284f:	c7 45 28 64 64 72 65 	movl   $0x65726464,0x28(%rbp)
  402856:	66 c7 45 2c 73 73    	movw   $0x7373,0x2c(%rbp)
  40285c:	c6 45 2e 00          	movb   $0x0,0x2e(%rbp)
  402860:	89 df                	mov    %ebx,%edi
  402862:	e8 b9 e4 ff ff       	callq  400d20 <close@plt>
  402867:	b8 ff ff ff ff       	mov    $0xffffffff,%eax
  40286c:	e9 23 ff ff ff       	jmpq   402794 <submitr+0x2e7>
  402871:	48 b8 45 72 72 6f 72 	movabs $0x55203a726f727245,%rax
  402878:	3a 20 55 
  40287b:	48 ba 6e 61 62 6c 65 	movabs $0x6f7420656c62616e,%rdx
  402882:	20 74 6f 
  402885:	48 89 45 00          	mov    %rax,0x0(%rbp)
  402889:	48 89 55 08          	mov    %rdx,0x8(%rbp)
  40288d:	48 b8 20 63 6f 6e 6e 	movabs $0x7463656e6e6f6320,%rax
  402894:	65 63 74 
  402897:	48 ba 20 74 6f 20 74 	movabs $0x20656874206f7420,%rdx
  40289e:	68 65 20 
  4028a1:	48 89 45 10          	mov    %rax,0x10(%rbp)
  4028a5:	48 89 55 18          	mov    %rdx,0x18(%rbp)
  4028a9:	c7 45 20 73 65 72 76 	movl   $0x76726573,0x20(%rbp)
  4028b0:	66 c7 45 24 65 72    	movw   $0x7265,0x24(%rbp)
  4028b6:	c6 45 26 00          	movb   $0x0,0x26(%rbp)
  4028ba:	89 df                	mov    %ebx,%edi
  4028bc:	e8 5f e4 ff ff       	callq  400d20 <close@plt>
  4028c1:	b8 ff ff ff ff       	mov    $0xffffffff,%eax
  4028c6:	e9 c9 fe ff ff       	jmpq   402794 <submitr+0x2e7>
  4028cb:	48 b8 45 72 72 6f 72 	movabs $0x52203a726f727245,%rax
  4028d2:	3a 20 52 
  4028d5:	48 ba 65 73 75 6c 74 	movabs $0x747320746c757365,%rdx
  4028dc:	20 73 74 
  4028df:	48 89 45 00          	mov    %rax,0x0(%rbp)
  4028e3:	48 89 55 08          	mov    %rdx,0x8(%rbp)
  4028e7:	48 b8 72 69 6e 67 20 	movabs $0x6f6f7420676e6972,%rax
  4028ee:	74 6f 6f 
  4028f1:	48 ba 20 6c 61 72 67 	movabs $0x202e656772616c20,%rdx
  4028f8:	65 2e 20 
  4028fb:	48 89 45 10          	mov    %rax,0x10(%rbp)
  4028ff:	48 89 55 18          	mov    %rdx,0x18(%rbp)
  402903:	48 b8 49 6e 63 72 65 	movabs $0x6573616572636e49,%rax
  40290a:	61 73 65 
  40290d:	48 ba 20 53 55 42 4d 	movabs $0x5254494d42555320,%rdx
  402914:	49 54 52 
  402917:	48 89 45 20          	mov    %rax,0x20(%rbp)
  40291b:	48 89 55 28          	mov    %rdx,0x28(%rbp)
  40291f:	48 b8 5f 4d 41 58 42 	movabs $0x46554258414d5f,%rax
  402926:	55 46 00 
  402929:	48 89 45 30          	mov    %rax,0x30(%rbp)
  40292d:	89 df                	mov    %ebx,%edi
  40292f:	e8 ec e3 ff ff       	callq  400d20 <close@plt>
  402934:	b8 ff ff ff ff       	mov    $0xffffffff,%eax
  402939:	e9 56 fe ff ff       	jmpq   402794 <submitr+0x2e7>
  40293e:	48 b8 45 72 72 6f 72 	movabs $0x52203a726f727245,%rax
  402945:	3a 20 52 
  402948:	48 ba 65 73 75 6c 74 	movabs $0x747320746c757365,%rdx
  40294f:	20 73 74 
  402952:	48 89 45 00          	mov    %rax,0x0(%rbp)
  402956:	48 89 55 08          	mov    %rdx,0x8(%rbp)
  40295a:	48 b8 72 69 6e 67 20 	movabs $0x6e6f6320676e6972,%rax
  402961:	63 6f 6e 
  402964:	48 ba 74 61 69 6e 73 	movabs $0x6e6120736e696174,%rdx
  40296b:	20 61 6e 
  40296e:	48 89 45 10          	mov    %rax,0x10(%rbp)
  402972:	48 89 55 18          	mov    %rdx,0x18(%rbp)
  402976:	48 b8 20 69 6c 6c 65 	movabs $0x6c6167656c6c6920,%rax
  40297d:	67 61 6c 
  402980:	48 ba 20 6f 72 20 75 	movabs $0x72706e7520726f20,%rdx
  402987:	6e 70 72 
  40298a:	48 89 45 20          	mov    %rax,0x20(%rbp)
  40298e:	48 89 55 28          	mov    %rdx,0x28(%rbp)
  402992:	48 b8 69 6e 74 61 62 	movabs $0x20656c6261746e69,%rax
  402999:	6c 65 20 
  40299c:	48 ba 63 68 61 72 61 	movabs $0x6574636172616863,%rdx
  4029a3:	63 74 65 
  4029a6:	48 89 45 30          	mov    %rax,0x30(%rbp)
  4029aa:	48 89 55 38          	mov    %rdx,0x38(%rbp)
  4029ae:	66 c7 45 40 72 2e    	movw   $0x2e72,0x40(%rbp)
  4029b4:	c6 45 42 00          	movb   $0x0,0x42(%rbp)
  4029b8:	89 df                	mov    %ebx,%edi
  4029ba:	e8 61 e3 ff ff       	callq  400d20 <close@plt>
  4029bf:	b8 ff ff ff ff       	mov    $0xffffffff,%eax
  4029c4:	e9 cb fd ff ff       	jmpq   402794 <submitr+0x2e7>
  4029c9:	48 b8 45 72 72 6f 72 	movabs $0x43203a726f727245,%rax
  4029d0:	3a 20 43 
  4029d3:	48 ba 6c 69 65 6e 74 	movabs $0x6e7520746e65696c,%rdx
  4029da:	20 75 6e 
  4029dd:	48 89 45 00          	mov    %rax,0x0(%rbp)
  4029e1:	48 89 55 08          	mov    %rdx,0x8(%rbp)
  4029e5:	48 b8 61 62 6c 65 20 	movabs $0x206f7420656c6261,%rax
  4029ec:	74 6f 20 
  4029ef:	48 ba 77 72 69 74 65 	movabs $0x6f74206574697277,%rdx
  4029f6:	20 74 6f 
  4029f9:	48 89 45 10          	mov    %rax,0x10(%rbp)
  4029fd:	48 89 55 18          	mov    %rdx,0x18(%rbp)
  402a01:	48 b8 20 74 68 65 20 	movabs $0x7365722065687420,%rax
  402a08:	72 65 73 
  402a0b:	48 ba 75 6c 74 20 73 	movabs $0x7672657320746c75,%rdx
  402a12:	65 72 76 
  402a15:	48 89 45 20          	mov    %rax,0x20(%rbp)
  402a19:	48 89 55 28          	mov    %rdx,0x28(%rbp)
  402a1d:	66 c7 45 30 65 72    	movw   $0x7265,0x30(%rbp)
  402a23:	c6 45 32 00          	movb   $0x0,0x32(%rbp)
  402a27:	89 df                	mov    %ebx,%edi
  402a29:	e8 f2 e2 ff ff       	callq  400d20 <close@plt>
  402a2e:	b8 ff ff ff ff       	mov    $0xffffffff,%eax
  402a33:	e9 5c fd ff ff       	jmpq   402794 <submitr+0x2e7>
  402a38:	48 b8 45 72 72 6f 72 	movabs $0x43203a726f727245,%rax
  402a3f:	3a 20 43 
  402a42:	48 ba 6c 69 65 6e 74 	movabs $0x6e7520746e65696c,%rdx
  402a49:	20 75 6e 
  402a4c:	48 89 45 00          	mov    %rax,0x0(%rbp)
  402a50:	48 89 55 08          	mov    %rdx,0x8(%rbp)
  402a54:	48 b8 61 62 6c 65 20 	movabs $0x206f7420656c6261,%rax
  402a5b:	74 6f 20 
  402a5e:	48 ba 72 65 61 64 20 	movabs $0x7269662064616572,%rdx
  402a65:	66 69 72 
  402a68:	48 89 45 10          	mov    %rax,0x10(%rbp)
  402a6c:	48 89 55 18          	mov    %rdx,0x18(%rbp)
  402a70:	48 b8 73 74 20 68 65 	movabs $0x6564616568207473,%rax
  402a77:	61 64 65 
  402a7a:	48 ba 72 20 66 72 6f 	movabs $0x72206d6f72662072,%rdx
  402a81:	6d 20 72 
  402a84:	48 89 45 20          	mov    %rax,0x20(%rbp)
  402a88:	48 89 55 28          	mov    %rdx,0x28(%rbp)
  402a8c:	48 b8 65 73 75 6c 74 	movabs $0x657320746c757365,%rax
  402a93:	20 73 65 
  402a96:	48 89 45 30          	mov    %rax,0x30(%rbp)
  402a9a:	c7 45 38 72 76 65 72 	movl   $0x72657672,0x38(%rbp)
  402aa1:	c6 45 3c 00          	movb   $0x0,0x3c(%rbp)
  402aa5:	89 df                	mov    %ebx,%edi
  402aa7:	e8 74 e2 ff ff       	callq  400d20 <close@plt>
  402aac:	b8 ff ff ff ff       	mov    $0xffffffff,%eax
  402ab1:	e9 de fc ff ff       	jmpq   402794 <submitr+0x2e7>
  402ab6:	48 8d b4 24 50 20 00 	lea    0x2050(%rsp),%rsi
  402abd:	00 
  402abe:	48 8d 7c 24 40       	lea    0x40(%rsp),%rdi
  402ac3:	ba 00 20 00 00       	mov    $0x2000,%edx
  402ac8:	e8 29 f8 ff ff       	callq  4022f6 <rio_readlineb>
  402acd:	48 85 c0             	test   %rax,%rax
  402ad0:	0f 8e 96 00 00 00    	jle    402b6c <submitr+0x6bf>
  402ad6:	44 8b 44 24 2c       	mov    0x2c(%rsp),%r8d
  402adb:	41 81 f8 c8 00 00 00 	cmp    $0xc8,%r8d
  402ae2:	0f 85 08 01 00 00    	jne    402bf0 <submitr+0x743>
  402ae8:	48 8d b4 24 50 20 00 	lea    0x2050(%rsp),%rsi
  402aef:	00 
  402af0:	48 89 ef             	mov    %rbp,%rdi
  402af3:	e8 b8 e1 ff ff       	callq  400cb0 <strcpy@plt>
  402af8:	89 df                	mov    %ebx,%edi
  402afa:	e8 21 e2 ff ff       	callq  400d20 <close@plt>
  402aff:	b9 04 00 00 00       	mov    $0x4,%ecx
  402b04:	48 8d 3d 75 0c 00 00 	lea    0xc75(%rip),%rdi        # 403780 <trans_char+0xc0>
  402b0b:	48 89 ee             	mov    %rbp,%rsi
  402b0e:	f3 a6                	repz cmpsb %es:(%rdi),%ds:(%rsi)
  402b10:	0f 97 c0             	seta   %al
  402b13:	1c 00                	sbb    $0x0,%al
  402b15:	0f be c0             	movsbl %al,%eax
  402b18:	85 c0                	test   %eax,%eax
  402b1a:	0f 84 74 fc ff ff    	je     402794 <submitr+0x2e7>
  402b20:	b9 05 00 00 00       	mov    $0x5,%ecx
  402b25:	48 8d 3d 58 0c 00 00 	lea    0xc58(%rip),%rdi        # 403784 <trans_char+0xc4>
  402b2c:	48 89 ee             	mov    %rbp,%rsi
  402b2f:	f3 a6                	repz cmpsb %es:(%rdi),%ds:(%rsi)
  402b31:	0f 97 c0             	seta   %al
  402b34:	1c 00                	sbb    $0x0,%al
  402b36:	0f be c0             	movsbl %al,%eax
  402b39:	85 c0                	test   %eax,%eax
  402b3b:	0f 84 53 fc ff ff    	je     402794 <submitr+0x2e7>
  402b41:	b9 03 00 00 00       	mov    $0x3,%ecx
  402b46:	48 8d 3d 3c 0c 00 00 	lea    0xc3c(%rip),%rdi        # 403789 <trans_char+0xc9>
  402b4d:	48 89 ee             	mov    %rbp,%rsi
  402b50:	f3 a6                	repz cmpsb %es:(%rdi),%ds:(%rsi)
  402b52:	0f 97 c0             	seta   %al
  402b55:	1c 00                	sbb    $0x0,%al
  402b57:	0f be c0             	movsbl %al,%eax
  402b5a:	85 c0                	test   %eax,%eax
  402b5c:	0f 84 32 fc ff ff    	je     402794 <submitr+0x2e7>
  402b62:	b8 ff ff ff ff       	mov    $0xffffffff,%eax
  402b67:	e9 28 fc ff ff       	jmpq   402794 <submitr+0x2e7>
  402b6c:	48 b8 45 72 72 6f 72 	movabs $0x43203a726f727245,%rax
  402b73:	3a 20 43 
  402b76:	48 ba 6c 69 65 6e 74 	movabs $0x6e7520746e65696c,%rdx
  402b7d:	20 75 6e 
  402b80:	48 89 45 00          	mov    %rax,0x0(%rbp)
  402b84:	48 89 55 08          	mov    %rdx,0x8(%rbp)
  402b88:	48 b8 61 62 6c 65 20 	movabs $0x206f7420656c6261,%rax
  402b8f:	74 6f 20 
  402b92:	48 ba 72 65 61 64 20 	movabs $0x6174732064616572,%rdx
  402b99:	73 74 61 
  402b9c:	48 89 45 10          	mov    %rax,0x10(%rbp)
  402ba0:	48 89 55 18          	mov    %rdx,0x18(%rbp)
  402ba4:	48 b8 74 75 73 20 6d 	movabs $0x7373656d20737574,%rax
  402bab:	65 73 73 
  402bae:	48 ba 61 67 65 20 66 	movabs $0x6d6f726620656761,%rdx
  402bb5:	72 6f 6d 
  402bb8:	48 89 45 20          	mov    %rax,0x20(%rbp)
  402bbc:	48 89 55 28          	mov    %rdx,0x28(%rbp)
  402bc0:	48 b8 20 72 65 73 75 	movabs $0x20746c7573657220,%rax
  402bc7:	6c 74 20 
  402bca:	48 89 45 30          	mov    %rax,0x30(%rbp)
  402bce:	c7 45 38 73 65 72 76 	movl   $0x76726573,0x38(%rbp)
  402bd5:	66 c7 45 3c 65 72    	movw   $0x7265,0x3c(%rbp)
  402bdb:	c6 45 3e 00          	movb   $0x0,0x3e(%rbp)
  402bdf:	89 df                	mov    %ebx,%edi
  402be1:	e8 3a e1 ff ff       	callq  400d20 <close@plt>
  402be6:	b8 ff ff ff ff       	mov    $0xffffffff,%eax
  402beb:	e9 a4 fb ff ff       	jmpq   402794 <submitr+0x2e7>
  402bf0:	4c 8d 8c 24 50 80 00 	lea    0x8050(%rsp),%r9
  402bf7:	00 
  402bf8:	48 8d 0d 39 0b 00 00 	lea    0xb39(%rip),%rcx        # 403738 <trans_char+0x78>
  402bff:	48 c7 c2 ff ff ff ff 	mov    $0xffffffffffffffff,%rdx
  402c06:	be 01 00 00 00       	mov    $0x1,%esi
  402c0b:	48 89 ef             	mov    %rbp,%rdi
  402c0e:	b8 00 00 00 00       	mov    $0x0,%eax
  402c13:	e8 48 e2 ff ff       	callq  400e60 <__sprintf_chk@plt>
  402c18:	89 df                	mov    %ebx,%edi
  402c1a:	e8 01 e1 ff ff       	callq  400d20 <close@plt>
  402c1f:	b8 ff ff ff ff       	mov    $0xffffffff,%eax
  402c24:	e9 6b fb ff ff       	jmpq   402794 <submitr+0x2e7>
  402c29:	e8 b2 e0 ff ff       	callq  400ce0 <__stack_chk_fail@plt>

0000000000402c2e <init_timeout>:
  402c2e:	85 ff                	test   %edi,%edi
  402c30:	74 28                	je     402c5a <init_timeout+0x2c>
  402c32:	53                   	push   %rbx
  402c33:	89 fb                	mov    %edi,%ebx
  402c35:	85 ff                	test   %edi,%edi
  402c37:	78 1a                	js     402c53 <init_timeout+0x25>
  402c39:	48 8d 35 9d f5 ff ff 	lea    -0xa63(%rip),%rsi        # 4021dd <sigalrm_handler>
  402c40:	bf 0e 00 00 00       	mov    $0xe,%edi
  402c45:	e8 f6 e0 ff ff       	callq  400d40 <signal@plt>
  402c4a:	89 df                	mov    %ebx,%edi
  402c4c:	e8 bf e0 ff ff       	callq  400d10 <alarm@plt>
  402c51:	5b                   	pop    %rbx
  402c52:	c3                   	retq   
  402c53:	bb 00 00 00 00       	mov    $0x0,%ebx
  402c58:	eb df                	jmp    402c39 <init_timeout+0xb>
  402c5a:	f3 c3                	repz retq 

0000000000402c5c <init_driver>:
  402c5c:	41 54                	push   %r12
  402c5e:	55                   	push   %rbp
  402c5f:	53                   	push   %rbx
  402c60:	48 83 ec 20          	sub    $0x20,%rsp
  402c64:	49 89 fc             	mov    %rdi,%r12
  402c67:	64 48 8b 04 25 28 00 	mov    %fs:0x28,%rax
  402c6e:	00 00 
  402c70:	48 89 44 24 18       	mov    %rax,0x18(%rsp)
  402c75:	31 c0                	xor    %eax,%eax
  402c77:	be 01 00 00 00       	mov    $0x1,%esi
  402c7c:	bf 0d 00 00 00       	mov    $0xd,%edi
  402c81:	e8 ba e0 ff ff       	callq  400d40 <signal@plt>
  402c86:	be 01 00 00 00       	mov    $0x1,%esi
  402c8b:	bf 1d 00 00 00       	mov    $0x1d,%edi
  402c90:	e8 ab e0 ff ff       	callq  400d40 <signal@plt>
  402c95:	be 01 00 00 00       	mov    $0x1,%esi
  402c9a:	bf 1d 00 00 00       	mov    $0x1d,%edi
  402c9f:	e8 9c e0 ff ff       	callq  400d40 <signal@plt>
  402ca4:	ba 00 00 00 00       	mov    $0x0,%edx
  402ca9:	be 01 00 00 00       	mov    $0x1,%esi
  402cae:	bf 02 00 00 00       	mov    $0x2,%edi
  402cb3:	e8 b8 e1 ff ff       	callq  400e70 <socket@plt>
  402cb8:	85 c0                	test   %eax,%eax
  402cba:	0f 88 a3 00 00 00    	js     402d63 <init_driver+0x107>
  402cc0:	89 c3                	mov    %eax,%ebx
  402cc2:	48 8d 3d c3 0a 00 00 	lea    0xac3(%rip),%rdi        # 40378c <trans_char+0xcc>
  402cc9:	e8 82 e0 ff ff       	callq  400d50 <gethostbyname@plt>
  402cce:	48 85 c0             	test   %rax,%rax
  402cd1:	0f 84 df 00 00 00    	je     402db6 <init_driver+0x15a>
  402cd7:	48 89 e5             	mov    %rsp,%rbp
  402cda:	48 c7 44 24 02 00 00 	movq   $0x0,0x2(%rsp)
  402ce1:	00 00 
  402ce3:	c7 45 0a 00 00 00 00 	movl   $0x0,0xa(%rbp)
  402cea:	66 c7 45 0e 00 00    	movw   $0x0,0xe(%rbp)
  402cf0:	66 c7 04 24 02 00    	movw   $0x2,(%rsp)
  402cf6:	48 63 50 14          	movslq 0x14(%rax),%rdx
  402cfa:	48 8b 40 18          	mov    0x18(%rax),%rax
  402cfe:	48 8b 30             	mov    (%rax),%rsi
  402d01:	48 8d 7d 04          	lea    0x4(%rbp),%rdi
  402d05:	b9 0c 00 00 00       	mov    $0xc,%ecx
  402d0a:	e8 51 e0 ff ff       	callq  400d60 <__memmove_chk@plt>
  402d0f:	66 c7 44 24 02 3c 9a 	movw   $0x9a3c,0x2(%rsp)
  402d16:	ba 10 00 00 00       	mov    $0x10,%edx
  402d1b:	48 89 ee             	mov    %rbp,%rsi
  402d1e:	89 df                	mov    %ebx,%edi
  402d20:	e8 1b e1 ff ff       	callq  400e40 <connect@plt>
  402d25:	85 c0                	test   %eax,%eax
  402d27:	0f 88 fb 00 00 00    	js     402e28 <init_driver+0x1cc>
  402d2d:	89 df                	mov    %ebx,%edi
  402d2f:	e8 ec df ff ff       	callq  400d20 <close@plt>
  402d34:	66 41 c7 04 24 4f 4b 	movw   $0x4b4f,(%r12)
  402d3b:	41 c6 44 24 02 00    	movb   $0x0,0x2(%r12)
  402d41:	b8 00 00 00 00       	mov    $0x0,%eax
  402d46:	48 8b 4c 24 18       	mov    0x18(%rsp),%rcx
  402d4b:	64 48 33 0c 25 28 00 	xor    %fs:0x28,%rcx
  402d52:	00 00 
  402d54:	0f 85 28 01 00 00    	jne    402e82 <init_driver+0x226>
  402d5a:	48 83 c4 20          	add    $0x20,%rsp
  402d5e:	5b                   	pop    %rbx
  402d5f:	5d                   	pop    %rbp
  402d60:	41 5c                	pop    %r12
  402d62:	c3                   	retq   
  402d63:	48 b8 45 72 72 6f 72 	movabs $0x43203a726f727245,%rax
  402d6a:	3a 20 43 
  402d6d:	48 ba 6c 69 65 6e 74 	movabs $0x6e7520746e65696c,%rdx
  402d74:	20 75 6e 
  402d77:	49 89 04 24          	mov    %rax,(%r12)
  402d7b:	49 89 54 24 08       	mov    %rdx,0x8(%r12)
  402d80:	48 b8 61 62 6c 65 20 	movabs $0x206f7420656c6261,%rax
  402d87:	74 6f 20 
  402d8a:	48 ba 63 72 65 61 74 	movabs $0x7320657461657263,%rdx
  402d91:	65 20 73 
  402d94:	49 89 44 24 10       	mov    %rax,0x10(%r12)
  402d99:	49 89 54 24 18       	mov    %rdx,0x18(%r12)
  402d9e:	41 c7 44 24 20 6f 63 	movl   $0x656b636f,0x20(%r12)
  402da5:	6b 65 
  402da7:	66 41 c7 44 24 24 74 	movw   $0x74,0x24(%r12)
  402dae:	00 
  402daf:	b8 ff ff ff ff       	mov    $0xffffffff,%eax
  402db4:	eb 90                	jmp    402d46 <init_driver+0xea>
  402db6:	48 b8 45 72 72 6f 72 	movabs $0x44203a726f727245,%rax
  402dbd:	3a 20 44 
  402dc0:	48 ba 4e 53 20 69 73 	movabs $0x6e7520736920534e,%rdx
  402dc7:	20 75 6e 
  402dca:	49 89 04 24          	mov    %rax,(%r12)
  402dce:	49 89 54 24 08       	mov    %rdx,0x8(%r12)
  402dd3:	48 b8 61 62 6c 65 20 	movabs $0x206f7420656c6261,%rax
  402dda:	74 6f 20 
  402ddd:	48 ba 72 65 73 6f 6c 	movabs $0x2065766c6f736572,%rdx
  402de4:	76 65 20 
  402de7:	49 89 44 24 10       	mov    %rax,0x10(%r12)
  402dec:	49 89 54 24 18       	mov    %rdx,0x18(%r12)
  402df1:	48 b8 73 65 72 76 65 	movabs $0x6120726576726573,%rax
  402df8:	72 20 61 
  402dfb:	49 89 44 24 20       	mov    %rax,0x20(%r12)
  402e00:	41 c7 44 24 28 64 64 	movl   $0x65726464,0x28(%r12)
  402e07:	72 65 
  402e09:	66 41 c7 44 24 2c 73 	movw   $0x7373,0x2c(%r12)
  402e10:	73 
  402e11:	41 c6 44 24 2e 00    	movb   $0x0,0x2e(%r12)
  402e17:	89 df                	mov    %ebx,%edi
  402e19:	e8 02 df ff ff       	callq  400d20 <close@plt>
  402e1e:	b8 ff ff ff ff       	mov    $0xffffffff,%eax
  402e23:	e9 1e ff ff ff       	jmpq   402d46 <init_driver+0xea>
  402e28:	48 b8 45 72 72 6f 72 	movabs $0x55203a726f727245,%rax
  402e2f:	3a 20 55 
  402e32:	48 ba 6e 61 62 6c 65 	movabs $0x6f7420656c62616e,%rdx
  402e39:	20 74 6f 
  402e3c:	49 89 04 24          	mov    %rax,(%r12)
  402e40:	49 89 54 24 08       	mov    %rdx,0x8(%r12)
  402e45:	48 b8 20 63 6f 6e 6e 	movabs $0x7463656e6e6f6320,%rax
  402e4c:	65 63 74 
  402e4f:	48 ba 20 74 6f 20 73 	movabs $0x76726573206f7420,%rdx
  402e56:	65 72 76 
  402e59:	49 89 44 24 10       	mov    %rax,0x10(%r12)
  402e5e:	49 89 54 24 18       	mov    %rdx,0x18(%r12)
  402e63:	66 41 c7 44 24 20 65 	movw   $0x7265,0x20(%r12)
  402e6a:	72 
  402e6b:	41 c6 44 24 22 00    	movb   $0x0,0x22(%r12)
  402e71:	89 df                	mov    %ebx,%edi
  402e73:	e8 a8 de ff ff       	callq  400d20 <close@plt>
  402e78:	b8 ff ff ff ff       	mov    $0xffffffff,%eax
  402e7d:	e9 c4 fe ff ff       	jmpq   402d46 <init_driver+0xea>
  402e82:	e8 59 de ff ff       	callq  400ce0 <__stack_chk_fail@plt>

0000000000402e87 <driver_post>:
  402e87:	53                   	push   %rbx
  402e88:	4c 89 cb             	mov    %r9,%rbx
  402e8b:	45 85 c0             	test   %r8d,%r8d
  402e8e:	75 18                	jne    402ea8 <driver_post+0x21>
  402e90:	48 85 ff             	test   %rdi,%rdi
  402e93:	74 05                	je     402e9a <driver_post+0x13>
  402e95:	80 3f 00             	cmpb   $0x0,(%rdi)
  402e98:	75 37                	jne    402ed1 <driver_post+0x4a>
  402e9a:	66 c7 03 4f 4b       	movw   $0x4b4f,(%rbx)
  402e9f:	c6 43 02 00          	movb   $0x0,0x2(%rbx)
  402ea3:	44 89 c0             	mov    %r8d,%eax
  402ea6:	5b                   	pop    %rbx
  402ea7:	c3                   	retq   
  402ea8:	48 89 ca             	mov    %rcx,%rdx
  402eab:	48 8d 35 f2 08 00 00 	lea    0x8f2(%rip),%rsi        # 4037a4 <trans_char+0xe4>
  402eb2:	bf 01 00 00 00       	mov    $0x1,%edi
  402eb7:	b8 00 00 00 00       	mov    $0x0,%eax
  402ebc:	e8 1f df ff ff       	callq  400de0 <__printf_chk@plt>
  402ec1:	66 c7 03 4f 4b       	movw   $0x4b4f,(%rbx)
  402ec6:	c6 43 02 00          	movb   $0x0,0x2(%rbx)
  402eca:	b8 00 00 00 00       	mov    $0x0,%eax
  402ecf:	eb d5                	jmp    402ea6 <driver_post+0x1f>
  402ed1:	48 83 ec 08          	sub    $0x8,%rsp
  402ed5:	41 51                	push   %r9
  402ed7:	49 89 c9             	mov    %rcx,%r9
  402eda:	49 89 d0             	mov    %rdx,%r8
  402edd:	48 89 f9             	mov    %rdi,%rcx
  402ee0:	48 89 f2             	mov    %rsi,%rdx
  402ee3:	be 9a 3c 00 00       	mov    $0x3c9a,%esi
  402ee8:	48 8d 3d 9d 08 00 00 	lea    0x89d(%rip),%rdi        # 40378c <trans_char+0xcc>
  402eef:	e8 b9 f5 ff ff       	callq  4024ad <submitr>
  402ef4:	48 83 c4 10          	add    $0x10,%rsp
  402ef8:	eb ac                	jmp    402ea6 <driver_post+0x1f>

0000000000402efa <check>:
  402efa:	89 f8                	mov    %edi,%eax
  402efc:	c1 e8 1c             	shr    $0x1c,%eax
  402eff:	85 c0                	test   %eax,%eax
  402f01:	74 1d                	je     402f20 <check+0x26>
  402f03:	b9 00 00 00 00       	mov    $0x0,%ecx
  402f08:	83 f9 1f             	cmp    $0x1f,%ecx
  402f0b:	7f 0d                	jg     402f1a <check+0x20>
  402f0d:	89 f8                	mov    %edi,%eax
  402f0f:	d3 e8                	shr    %cl,%eax
  402f11:	3c 0a                	cmp    $0xa,%al
  402f13:	74 11                	je     402f26 <check+0x2c>
  402f15:	83 c1 08             	add    $0x8,%ecx
  402f18:	eb ee                	jmp    402f08 <check+0xe>
  402f1a:	b8 01 00 00 00       	mov    $0x1,%eax
  402f1f:	c3                   	retq   
  402f20:	b8 00 00 00 00       	mov    $0x0,%eax
  402f25:	c3                   	retq   
  402f26:	b8 00 00 00 00       	mov    $0x0,%eax
  402f2b:	c3                   	retq   

0000000000402f2c <gencookie>:
  402f2c:	53                   	push   %rbx
  402f2d:	83 c7 01             	add    $0x1,%edi
  402f30:	e8 5b dd ff ff       	callq  400c90 <srandom@plt>
  402f35:	e8 66 de ff ff       	callq  400da0 <random@plt>
  402f3a:	89 c3                	mov    %eax,%ebx
  402f3c:	89 c7                	mov    %eax,%edi
  402f3e:	e8 b7 ff ff ff       	callq  402efa <check>
  402f43:	85 c0                	test   %eax,%eax
  402f45:	74 ee                	je     402f35 <gencookie+0x9>
  402f47:	89 d8                	mov    %ebx,%eax
  402f49:	5b                   	pop    %rbx
  402f4a:	c3                   	retq   
  402f4b:	0f 1f 44 00 00       	nopl   0x0(%rax,%rax,1)

0000000000402f50 <__libc_csu_init>:
  402f50:	41 57                	push   %r15
  402f52:	41 56                	push   %r14
  402f54:	49 89 d7             	mov    %rdx,%r15
  402f57:	41 55                	push   %r13
  402f59:	41 54                	push   %r12
  402f5b:	4c 8d 25 ae 1e 20 00 	lea    0x201eae(%rip),%r12        # 604e10 <__frame_dummy_init_array_entry>
  402f62:	55                   	push   %rbp
  402f63:	48 8d 2d ae 1e 20 00 	lea    0x201eae(%rip),%rbp        # 604e18 <__init_array_end>
  402f6a:	53                   	push   %rbx
  402f6b:	41 89 fd             	mov    %edi,%r13d
  402f6e:	49 89 f6             	mov    %rsi,%r14
  402f71:	4c 29 e5             	sub    %r12,%rbp
  402f74:	48 83 ec 08          	sub    $0x8,%rsp
  402f78:	48 c1 fd 03          	sar    $0x3,%rbp
  402f7c:	e8 c7 dc ff ff       	callq  400c48 <_init>
  402f81:	48 85 ed             	test   %rbp,%rbp
  402f84:	74 20                	je     402fa6 <__libc_csu_init+0x56>
  402f86:	31 db                	xor    %ebx,%ebx
  402f88:	0f 1f 84 00 00 00 00 	nopl   0x0(%rax,%rax,1)
  402f8f:	00 
  402f90:	4c 89 fa             	mov    %r15,%rdx
  402f93:	4c 89 f6             	mov    %r14,%rsi
  402f96:	44 89 ef             	mov    %r13d,%edi
  402f99:	41 ff 14 dc          	callq  *(%r12,%rbx,8)
  402f9d:	48 83 c3 01          	add    $0x1,%rbx
  402fa1:	48 39 dd             	cmp    %rbx,%rbp
  402fa4:	75 ea                	jne    402f90 <__libc_csu_init+0x40>
  402fa6:	48 83 c4 08          	add    $0x8,%rsp
  402faa:	5b                   	pop    %rbx
  402fab:	5d                   	pop    %rbp
  402fac:	41 5c                	pop    %r12
  402fae:	41 5d                	pop    %r13
  402fb0:	41 5e                	pop    %r14
  402fb2:	41 5f                	pop    %r15
  402fb4:	c3                   	retq   
  402fb5:	90                   	nop
  402fb6:	66 2e 0f 1f 84 00 00 	nopw   %cs:0x0(%rax,%rax,1)
  402fbd:	00 00 00 

0000000000402fc0 <__libc_csu_fini>:
  402fc0:	f3 c3                	repz retq 

Disassembly of section .fini:

0000000000402fc4 <_fini>:
  402fc4:	48 83 ec 08          	sub    $0x8,%rsp
  402fc8:	48 83 c4 08          	add    $0x8,%rsp
  402fcc:	c3                   	retq   
